
ctarget:     file format elf64-x86-64


Disassembly of section .init:

0000000000400c48 <_init>:
  400c48:	48 83 ec 08          	sub    $0x8,%rsp
  400c4c:	48 8b 05 a5 33 20 00 	mov    0x2033a5(%rip),%rax        # 603ff8 <__gmon_start__>
  400c53:	48 85 c0             	test   %rax,%rax
  400c56:	74 02                	je     400c5a <_init+0x12>
  400c58:	ff d0                	callq  *%rax
  400c5a:	48 83 c4 08          	add    $0x8,%rsp
  400c5e:	c3                   	retq   

Disassembly of section .plt:

0000000000400c60 <.plt>:
  400c60:	ff 35 a2 33 20 00    	pushq  0x2033a2(%rip)        # 604008 <_GLOBAL_OFFSET_TABLE_+0x8>
  400c66:	ff 25 a4 33 20 00    	jmpq   *0x2033a4(%rip)        # 604010 <_GLOBAL_OFFSET_TABLE_+0x10>
  400c6c:	0f 1f 40 00          	nopl   0x0(%rax)

0000000000400c70 <strcasecmp@plt>:
  400c70:	ff 25 a2 33 20 00    	jmpq   *0x2033a2(%rip)        # 604018 <strcasecmp@GLIBC_2.2.5>
  400c76:	68 00 00 00 00       	pushq  $0x0
  400c7b:	e9 e0 ff ff ff       	jmpq   400c60 <.plt>

0000000000400c80 <__errno_location@plt>:
  400c80:	ff 25 9a 33 20 00    	jmpq   *0x20339a(%rip)        # 604020 <__errno_location@GLIBC_2.2.5>
  400c86:	68 01 00 00 00       	pushq  $0x1
  400c8b:	e9 d0 ff ff ff       	jmpq   400c60 <.plt>

0000000000400c90 <srandom@plt>:
  400c90:	ff 25 92 33 20 00    	jmpq   *0x203392(%rip)        # 604028 <srandom@GLIBC_2.2.5>
  400c96:	68 02 00 00 00       	pushq  $0x2
  400c9b:	e9 c0 ff ff ff       	jmpq   400c60 <.plt>

0000000000400ca0 <strncmp@plt>:
  400ca0:	ff 25 8a 33 20 00    	jmpq   *0x20338a(%rip)        # 604030 <strncmp@GLIBC_2.2.5>
  400ca6:	68 03 00 00 00       	pushq  $0x3
  400cab:	e9 b0 ff ff ff       	jmpq   400c60 <.plt>

0000000000400cb0 <strcpy@plt>:
  400cb0:	ff 25 82 33 20 00    	jmpq   *0x203382(%rip)        # 604038 <strcpy@GLIBC_2.2.5>
  400cb6:	68 04 00 00 00       	pushq  $0x4
  400cbb:	e9 a0 ff ff ff       	jmpq   400c60 <.plt>

0000000000400cc0 <puts@plt>:
  400cc0:	ff 25 7a 33 20 00    	jmpq   *0x20337a(%rip)        # 604040 <puts@GLIBC_2.2.5>
  400cc6:	68 05 00 00 00       	pushq  $0x5
  400ccb:	e9 90 ff ff ff       	jmpq   400c60 <.plt>

0000000000400cd0 <write@plt>:
  400cd0:	ff 25 72 33 20 00    	jmpq   *0x203372(%rip)        # 604048 <write@GLIBC_2.2.5>
  400cd6:	68 06 00 00 00       	pushq  $0x6
  400cdb:	e9 80 ff ff ff       	jmpq   400c60 <.plt>

0000000000400ce0 <__stack_chk_fail@plt>:
  400ce0:	ff 25 6a 33 20 00    	jmpq   *0x20336a(%rip)        # 604050 <__stack_chk_fail@GLIBC_2.4>
  400ce6:	68 07 00 00 00       	pushq  $0x7
  400ceb:	e9 70 ff ff ff       	jmpq   400c60 <.plt>

0000000000400cf0 <mmap@plt>:
  400cf0:	ff 25 62 33 20 00    	jmpq   *0x203362(%rip)        # 604058 <mmap@GLIBC_2.2.5>
  400cf6:	68 08 00 00 00       	pushq  $0x8
  400cfb:	e9 60 ff ff ff       	jmpq   400c60 <.plt>

0000000000400d00 <memset@plt>:
  400d00:	ff 25 5a 33 20 00    	jmpq   *0x20335a(%rip)        # 604060 <memset@GLIBC_2.2.5>
  400d06:	68 09 00 00 00       	pushq  $0x9
  400d0b:	e9 50 ff ff ff       	jmpq   400c60 <.plt>

0000000000400d10 <alarm@plt>:
  400d10:	ff 25 52 33 20 00    	jmpq   *0x203352(%rip)        # 604068 <alarm@GLIBC_2.2.5>
  400d16:	68 0a 00 00 00       	pushq  $0xa
  400d1b:	e9 40 ff ff ff       	jmpq   400c60 <.plt>

0000000000400d20 <close@plt>:
  400d20:	ff 25 4a 33 20 00    	jmpq   *0x20334a(%rip)        # 604070 <close@GLIBC_2.2.5>
  400d26:	68 0b 00 00 00       	pushq  $0xb
  400d2b:	e9 30 ff ff ff       	jmpq   400c60 <.plt>

0000000000400d30 <read@plt>:
  400d30:	ff 25 42 33 20 00    	jmpq   *0x203342(%rip)        # 604078 <read@GLIBC_2.2.5>
  400d36:	68 0c 00 00 00       	pushq  $0xc
  400d3b:	e9 20 ff ff ff       	jmpq   400c60 <.plt>

0000000000400d40 <signal@plt>:
  400d40:	ff 25 3a 33 20 00    	jmpq   *0x20333a(%rip)        # 604080 <signal@GLIBC_2.2.5>
  400d46:	68 0d 00 00 00       	pushq  $0xd
  400d4b:	e9 10 ff ff ff       	jmpq   400c60 <.plt>

0000000000400d50 <gethostbyname@plt>:
  400d50:	ff 25 32 33 20 00    	jmpq   *0x203332(%rip)        # 604088 <gethostbyname@GLIBC_2.2.5>
  400d56:	68 0e 00 00 00       	pushq  $0xe
  400d5b:	e9 00 ff ff ff       	jmpq   400c60 <.plt>

0000000000400d60 <__memmove_chk@plt>:
  400d60:	ff 25 2a 33 20 00    	jmpq   *0x20332a(%rip)        # 604090 <__memmove_chk@GLIBC_2.3.4>
  400d66:	68 0f 00 00 00       	pushq  $0xf
  400d6b:	e9 f0 fe ff ff       	jmpq   400c60 <.plt>

0000000000400d70 <strtol@plt>:
  400d70:	ff 25 22 33 20 00    	jmpq   *0x203322(%rip)        # 604098 <strtol@GLIBC_2.2.5>
  400d76:	68 10 00 00 00       	pushq  $0x10
  400d7b:	e9 e0 fe ff ff       	jmpq   400c60 <.plt>

0000000000400d80 <memcpy@plt>:
  400d80:	ff 25 1a 33 20 00    	jmpq   *0x20331a(%rip)        # 6040a0 <memcpy@GLIBC_2.14>
  400d86:	68 11 00 00 00       	pushq  $0x11
  400d8b:	e9 d0 fe ff ff       	jmpq   400c60 <.plt>

0000000000400d90 <time@plt>:
  400d90:	ff 25 12 33 20 00    	jmpq   *0x203312(%rip)        # 6040a8 <time@GLIBC_2.2.5>
  400d96:	68 12 00 00 00       	pushq  $0x12
  400d9b:	e9 c0 fe ff ff       	jmpq   400c60 <.plt>

0000000000400da0 <random@plt>:
  400da0:	ff 25 0a 33 20 00    	jmpq   *0x20330a(%rip)        # 6040b0 <random@GLIBC_2.2.5>
  400da6:	68 13 00 00 00       	pushq  $0x13
  400dab:	e9 b0 fe ff ff       	jmpq   400c60 <.plt>

0000000000400db0 <_IO_getc@plt>:
  400db0:	ff 25 02 33 20 00    	jmpq   *0x203302(%rip)        # 6040b8 <_IO_getc@GLIBC_2.2.5>
  400db6:	68 14 00 00 00       	pushq  $0x14
  400dbb:	e9 a0 fe ff ff       	jmpq   400c60 <.plt>

0000000000400dc0 <__isoc99_sscanf@plt>:
  400dc0:	ff 25 fa 32 20 00    	jmpq   *0x2032fa(%rip)        # 6040c0 <__isoc99_sscanf@GLIBC_2.7>
  400dc6:	68 15 00 00 00       	pushq  $0x15
  400dcb:	e9 90 fe ff ff       	jmpq   400c60 <.plt>

0000000000400dd0 <munmap@plt>:
  400dd0:	ff 25 f2 32 20 00    	jmpq   *0x2032f2(%rip)        # 6040c8 <munmap@GLIBC_2.2.5>
  400dd6:	68 16 00 00 00       	pushq  $0x16
  400ddb:	e9 80 fe ff ff       	jmpq   400c60 <.plt>

0000000000400de0 <__printf_chk@plt>:
  400de0:	ff 25 ea 32 20 00    	jmpq   *0x2032ea(%rip)        # 6040d0 <__printf_chk@GLIBC_2.3.4>
  400de6:	68 17 00 00 00       	pushq  $0x17
  400deb:	e9 70 fe ff ff       	jmpq   400c60 <.plt>

0000000000400df0 <fopen@plt>:
  400df0:	ff 25 e2 32 20 00    	jmpq   *0x2032e2(%rip)        # 6040d8 <fopen@GLIBC_2.2.5>
  400df6:	68 18 00 00 00       	pushq  $0x18
  400dfb:	e9 60 fe ff ff       	jmpq   400c60 <.plt>

0000000000400e00 <getopt@plt>:
  400e00:	ff 25 da 32 20 00    	jmpq   *0x2032da(%rip)        # 6040e0 <getopt@GLIBC_2.2.5>
  400e06:	68 19 00 00 00       	pushq  $0x19
  400e0b:	e9 50 fe ff ff       	jmpq   400c60 <.plt>

0000000000400e10 <strtoul@plt>:
  400e10:	ff 25 d2 32 20 00    	jmpq   *0x2032d2(%rip)        # 6040e8 <strtoul@GLIBC_2.2.5>
  400e16:	68 1a 00 00 00       	pushq  $0x1a
  400e1b:	e9 40 fe ff ff       	jmpq   400c60 <.plt>

0000000000400e20 <gethostname@plt>:
  400e20:	ff 25 ca 32 20 00    	jmpq   *0x2032ca(%rip)        # 6040f0 <gethostname@GLIBC_2.2.5>
  400e26:	68 1b 00 00 00       	pushq  $0x1b
  400e2b:	e9 30 fe ff ff       	jmpq   400c60 <.plt>

0000000000400e30 <exit@plt>:
  400e30:	ff 25 c2 32 20 00    	jmpq   *0x2032c2(%rip)        # 6040f8 <exit@GLIBC_2.2.5>
  400e36:	68 1c 00 00 00       	pushq  $0x1c
  400e3b:	e9 20 fe ff ff       	jmpq   400c60 <.plt>

0000000000400e40 <connect@plt>:
  400e40:	ff 25 ba 32 20 00    	jmpq   *0x2032ba(%rip)        # 604100 <connect@GLIBC_2.2.5>
  400e46:	68 1d 00 00 00       	pushq  $0x1d
  400e4b:	e9 10 fe ff ff       	jmpq   400c60 <.plt>

0000000000400e50 <__fprintf_chk@plt>:
  400e50:	ff 25 b2 32 20 00    	jmpq   *0x2032b2(%rip)        # 604108 <__fprintf_chk@GLIBC_2.3.4>
  400e56:	68 1e 00 00 00       	pushq  $0x1e
  400e5b:	e9 00 fe ff ff       	jmpq   400c60 <.plt>

0000000000400e60 <__sprintf_chk@plt>:
  400e60:	ff 25 aa 32 20 00    	jmpq   *0x2032aa(%rip)        # 604110 <__sprintf_chk@GLIBC_2.3.4>
  400e66:	68 1f 00 00 00       	pushq  $0x1f
  400e6b:	e9 f0 fd ff ff       	jmpq   400c60 <.plt>

0000000000400e70 <socket@plt>:
  400e70:	ff 25 a2 32 20 00    	jmpq   *0x2032a2(%rip)        # 604118 <socket@GLIBC_2.2.5>
  400e76:	68 20 00 00 00       	pushq  $0x20
  400e7b:	e9 e0 fd ff ff       	jmpq   400c60 <.plt>

Disassembly of section .text:

0000000000400e80 <_start>:
  400e80:	31 ed                	xor    %ebp,%ebp
  400e82:	49 89 d1             	mov    %rdx,%r9
  400e85:	5e                   	pop    %rsi
  400e86:	48 89 e2             	mov    %rsp,%rdx
  400e89:	48 83 e4 f0          	and    $0xfffffffffffffff0,%rsp
  400e8d:	50                   	push   %rax
  400e8e:	54                   	push   %rsp
  400e8f:	49 c7 c0 90 2d 40 00 	mov    $0x402d90,%r8
  400e96:	48 c7 c1 20 2d 40 00 	mov    $0x402d20,%rcx
  400e9d:	48 c7 c7 73 11 40 00 	mov    $0x401173,%rdi
  400ea4:	ff 15 46 31 20 00    	callq  *0x203146(%rip)        # 603ff0 <__libc_start_main@GLIBC_2.2.5>
  400eaa:	f4                   	hlt    
  400eab:	0f 1f 44 00 00       	nopl   0x0(%rax,%rax,1)

0000000000400eb0 <_dl_relocate_static_pie>:
  400eb0:	f3 c3                	repz retq 
  400eb2:	66 2e 0f 1f 84 00 00 	nopw   %cs:0x0(%rax,%rax,1)
  400eb9:	00 00 00 
  400ebc:	0f 1f 40 00          	nopl   0x0(%rax)

0000000000400ec0 <deregister_tm_clones>:
  400ec0:	55                   	push   %rbp
  400ec1:	b8 90 44 60 00       	mov    $0x604490,%eax
  400ec6:	48 3d 90 44 60 00    	cmp    $0x604490,%rax
  400ecc:	48 89 e5             	mov    %rsp,%rbp
  400ecf:	74 17                	je     400ee8 <deregister_tm_clones+0x28>
  400ed1:	b8 00 00 00 00       	mov    $0x0,%eax
  400ed6:	48 85 c0             	test   %rax,%rax
  400ed9:	74 0d                	je     400ee8 <deregister_tm_clones+0x28>
  400edb:	5d                   	pop    %rbp
  400edc:	bf 90 44 60 00       	mov    $0x604490,%edi
  400ee1:	ff e0                	jmpq   *%rax
  400ee3:	0f 1f 44 00 00       	nopl   0x0(%rax,%rax,1)
  400ee8:	5d                   	pop    %rbp
  400ee9:	c3                   	retq   
  400eea:	66 0f 1f 44 00 00    	nopw   0x0(%rax,%rax,1)

0000000000400ef0 <register_tm_clones>:
  400ef0:	be 90 44 60 00       	mov    $0x604490,%esi
  400ef5:	55                   	push   %rbp
  400ef6:	48 81 ee 90 44 60 00 	sub    $0x604490,%rsi
  400efd:	48 89 e5             	mov    %rsp,%rbp
  400f00:	48 c1 fe 03          	sar    $0x3,%rsi
  400f04:	48 89 f0             	mov    %rsi,%rax
  400f07:	48 c1 e8 3f          	shr    $0x3f,%rax
  400f0b:	48 01 c6             	add    %rax,%rsi
  400f0e:	48 d1 fe             	sar    %rsi
  400f11:	74 15                	je     400f28 <register_tm_clones+0x38>
  400f13:	b8 00 00 00 00       	mov    $0x0,%eax
  400f18:	48 85 c0             	test   %rax,%rax
  400f1b:	74 0b                	je     400f28 <register_tm_clones+0x38>
  400f1d:	5d                   	pop    %rbp
  400f1e:	bf 90 44 60 00       	mov    $0x604490,%edi
  400f23:	ff e0                	jmpq   *%rax
  400f25:	0f 1f 00             	nopl   (%rax)
  400f28:	5d                   	pop    %rbp
  400f29:	c3                   	retq   
  400f2a:	66 0f 1f 44 00 00    	nopw   0x0(%rax,%rax,1)

0000000000400f30 <__do_global_dtors_aux>:
  400f30:	80 3d 91 35 20 00 00 	cmpb   $0x0,0x203591(%rip)        # 6044c8 <completed.7697>
  400f37:	75 17                	jne    400f50 <__do_global_dtors_aux+0x20>
  400f39:	55                   	push   %rbp
  400f3a:	48 89 e5             	mov    %rsp,%rbp
  400f3d:	e8 7e ff ff ff       	callq  400ec0 <deregister_tm_clones>
  400f42:	c6 05 7f 35 20 00 01 	movb   $0x1,0x20357f(%rip)        # 6044c8 <completed.7697>
  400f49:	5d                   	pop    %rbp
  400f4a:	c3                   	retq   
  400f4b:	0f 1f 44 00 00       	nopl   0x0(%rax,%rax,1)
  400f50:	f3 c3                	repz retq 
  400f52:	0f 1f 40 00          	nopl   0x0(%rax)
  400f56:	66 2e 0f 1f 84 00 00 	nopw   %cs:0x0(%rax,%rax,1)
  400f5d:	00 00 00 

0000000000400f60 <frame_dummy>:
  400f60:	55                   	push   %rbp
  400f61:	48 89 e5             	mov    %rsp,%rbp
  400f64:	5d                   	pop    %rbp
  400f65:	eb 89                	jmp    400ef0 <register_tm_clones>

0000000000400f67 <usage>:
  400f67:	48 83 ec 08          	sub    $0x8,%rsp
  400f6b:	48 89 fa             	mov    %rdi,%rdx
  400f6e:	83 3d 93 35 20 00 00 	cmpl   $0x0,0x203593(%rip)        # 604508 <is_checker>
  400f75:	74 46                	je     400fbd <usage+0x56>
  400f77:	be a8 2d 40 00       	mov    $0x402da8,%esi
  400f7c:	bf 01 00 00 00       	mov    $0x1,%edi
  400f81:	b8 00 00 00 00       	mov    $0x0,%eax
  400f86:	e8 55 fe ff ff       	callq  400de0 <__printf_chk@plt>
  400f8b:	bf e0 2d 40 00       	mov    $0x402de0,%edi
  400f90:	e8 2b fd ff ff       	callq  400cc0 <puts@plt>
  400f95:	bf 58 2f 40 00       	mov    $0x402f58,%edi
  400f9a:	e8 21 fd ff ff       	callq  400cc0 <puts@plt>
  400f9f:	bf 08 2e 40 00       	mov    $0x402e08,%edi
  400fa4:	e8 17 fd ff ff       	callq  400cc0 <puts@plt>
  400fa9:	bf 72 2f 40 00       	mov    $0x402f72,%edi
  400fae:	e8 0d fd ff ff       	callq  400cc0 <puts@plt>
  400fb3:	bf 00 00 00 00       	mov    $0x0,%edi
  400fb8:	e8 73 fe ff ff       	callq  400e30 <exit@plt>
  400fbd:	be 8e 2f 40 00       	mov    $0x402f8e,%esi
  400fc2:	bf 01 00 00 00       	mov    $0x1,%edi
  400fc7:	b8 00 00 00 00       	mov    $0x0,%eax
  400fcc:	e8 0f fe ff ff       	callq  400de0 <__printf_chk@plt>
  400fd1:	bf 30 2e 40 00       	mov    $0x402e30,%edi
  400fd6:	e8 e5 fc ff ff       	callq  400cc0 <puts@plt>
  400fdb:	bf 58 2e 40 00       	mov    $0x402e58,%edi
  400fe0:	e8 db fc ff ff       	callq  400cc0 <puts@plt>
  400fe5:	bf ac 2f 40 00       	mov    $0x402fac,%edi
  400fea:	e8 d1 fc ff ff       	callq  400cc0 <puts@plt>
  400fef:	eb c2                	jmp    400fb3 <usage+0x4c>

0000000000400ff1 <initialize_target>:
  400ff1:	55                   	push   %rbp
  400ff2:	53                   	push   %rbx
  400ff3:	48 81 ec 18 21 00 00 	sub    $0x2118,%rsp
  400ffa:	89 f5                	mov    %esi,%ebp
  400ffc:	64 48 8b 04 25 28 00 	mov    %fs:0x28,%rax
  401003:	00 00 
  401005:	48 89 84 24 08 21 00 	mov    %rax,0x2108(%rsp)
  40100c:	00 
  40100d:	31 c0                	xor    %eax,%eax
  40100f:	89 3d e3 34 20 00    	mov    %edi,0x2034e3(%rip)        # 6044f8 <check_level>
  401015:	8b 3d 2d 31 20 00    	mov    0x20312d(%rip),%edi        # 604148 <target_id>
  40101b:	e8 e1 1c 00 00       	callq  402d01 <gencookie>
  401020:	89 05 de 34 20 00    	mov    %eax,0x2034de(%rip)        # 604504 <cookie>
  401026:	89 c7                	mov    %eax,%edi
  401028:	e8 d4 1c 00 00       	callq  402d01 <gencookie>
  40102d:	89 05 cd 34 20 00    	mov    %eax,0x2034cd(%rip)        # 604500 <authkey>
  401033:	8b 05 0f 31 20 00    	mov    0x20310f(%rip),%eax        # 604148 <target_id>
  401039:	8d 78 01             	lea    0x1(%rax),%edi
  40103c:	e8 4f fc ff ff       	callq  400c90 <srandom@plt>
  401041:	e8 5a fd ff ff       	callq  400da0 <random@plt>
  401046:	89 c7                	mov    %eax,%edi
  401048:	e8 f2 02 00 00       	callq  40133f <scramble>
  40104d:	89 c3                	mov    %eax,%ebx
  40104f:	85 ed                	test   %ebp,%ebp
  401051:	75 54                	jne    4010a7 <initialize_target+0xb6>
  401053:	b8 00 00 00 00       	mov    $0x0,%eax
  401058:	01 d8                	add    %ebx,%eax
  40105a:	0f b7 c0             	movzwl %ax,%eax
  40105d:	8d 04 c5 00 01 00 00 	lea    0x100(,%rax,8),%eax
  401064:	89 c0                	mov    %eax,%eax
  401066:	48 89 05 13 34 20 00 	mov    %rax,0x203413(%rip)        # 604480 <buf_offset>
  40106d:	c6 05 b4 40 20 00 63 	movb   $0x63,0x2040b4(%rip)        # 605128 <target_prefix>
  401074:	83 3d 0d 34 20 00 00 	cmpl   $0x0,0x20340d(%rip)        # 604488 <notify>
  40107b:	74 09                	je     401086 <initialize_target+0x95>
  40107d:	83 3d 84 34 20 00 00 	cmpl   $0x0,0x203484(%rip)        # 604508 <is_checker>
  401084:	74 39                	je     4010bf <initialize_target+0xce>
  401086:	48 8b 84 24 08 21 00 	mov    0x2108(%rsp),%rax
  40108d:	00 
  40108e:	64 48 33 04 25 28 00 	xor    %fs:0x28,%rax
  401095:	00 00 
  401097:	0f 85 d1 00 00 00    	jne    40116e <initialize_target+0x17d>
  40109d:	48 81 c4 18 21 00 00 	add    $0x2118,%rsp
  4010a4:	5b                   	pop    %rbx
  4010a5:	5d                   	pop    %rbp
  4010a6:	c3                   	retq   
  4010a7:	bf 00 00 00 00       	mov    $0x0,%edi
  4010ac:	e8 df fc ff ff       	callq  400d90 <time@plt>
  4010b1:	89 c7                	mov    %eax,%edi
  4010b3:	e8 d8 fb ff ff       	callq  400c90 <srandom@plt>
  4010b8:	e8 e3 fc ff ff       	callq  400da0 <random@plt>
  4010bd:	eb 99                	jmp    401058 <initialize_target+0x67>
  4010bf:	be 00 01 00 00       	mov    $0x100,%esi
  4010c4:	48 89 e7             	mov    %rsp,%rdi
  4010c7:	e8 54 fd ff ff       	callq  400e20 <gethostname@plt>
  4010cc:	89 c5                	mov    %eax,%ebp
  4010ce:	85 c0                	test   %eax,%eax
  4010d0:	75 23                	jne    4010f5 <initialize_target+0x104>
  4010d2:	89 c3                	mov    %eax,%ebx
  4010d4:	48 63 c3             	movslq %ebx,%rax
  4010d7:	48 8b 3c c5 60 41 60 	mov    0x604160(,%rax,8),%rdi
  4010de:	00 
  4010df:	48 85 ff             	test   %rdi,%rdi
  4010e2:	74 2a                	je     40110e <initialize_target+0x11d>
  4010e4:	48 89 e6             	mov    %rsp,%rsi
  4010e7:	e8 84 fb ff ff       	callq  400c70 <strcasecmp@plt>
  4010ec:	85 c0                	test   %eax,%eax
  4010ee:	74 19                	je     401109 <initialize_target+0x118>
  4010f0:	83 c3 01             	add    $0x1,%ebx
  4010f3:	eb df                	jmp    4010d4 <initialize_target+0xe3>
  4010f5:	bf 88 2e 40 00       	mov    $0x402e88,%edi
  4010fa:	e8 c1 fb ff ff       	callq  400cc0 <puts@plt>
  4010ff:	bf 08 00 00 00       	mov    $0x8,%edi
  401104:	e8 27 fd ff ff       	callq  400e30 <exit@plt>
  401109:	bd 01 00 00 00       	mov    $0x1,%ebp
  40110e:	85 ed                	test   %ebp,%ebp
  401110:	74 3b                	je     40114d <initialize_target+0x15c>
  401112:	48 8d bc 24 00 01 00 	lea    0x100(%rsp),%rdi
  401119:	00 
  40111a:	e8 37 19 00 00       	callq  402a56 <init_driver>
  40111f:	85 c0                	test   %eax,%eax
  401121:	0f 89 5f ff ff ff    	jns    401086 <initialize_target+0x95>
  401127:	48 8d 94 24 00 01 00 	lea    0x100(%rsp),%rdx
  40112e:	00 
  40112f:	be 00 2f 40 00       	mov    $0x402f00,%esi
  401134:	bf 01 00 00 00       	mov    $0x1,%edi
  401139:	b8 00 00 00 00       	mov    $0x0,%eax
  40113e:	e8 9d fc ff ff       	callq  400de0 <__printf_chk@plt>
  401143:	bf 08 00 00 00       	mov    $0x8,%edi
  401148:	e8 e3 fc ff ff       	callq  400e30 <exit@plt>
  40114d:	48 89 e2             	mov    %rsp,%rdx
  401150:	be c0 2e 40 00       	mov    $0x402ec0,%esi
  401155:	bf 01 00 00 00       	mov    $0x1,%edi
  40115a:	b8 00 00 00 00       	mov    $0x0,%eax
  40115f:	e8 7c fc ff ff       	callq  400de0 <__printf_chk@plt>
  401164:	bf 08 00 00 00       	mov    $0x8,%edi
  401169:	e8 c2 fc ff ff       	callq  400e30 <exit@plt>
  40116e:	e8 6d fb ff ff       	callq  400ce0 <__stack_chk_fail@plt>

0000000000401173 <main>:
  401173:	41 56                	push   %r14
  401175:	41 55                	push   %r13
  401177:	41 54                	push   %r12
  401179:	55                   	push   %rbp
  40117a:	53                   	push   %rbx
  40117b:	41 89 fc             	mov    %edi,%r12d
  40117e:	48 89 f3             	mov    %rsi,%rbx
  401181:	be 93 1d 40 00       	mov    $0x401d93,%esi
  401186:	bf 0b 00 00 00       	mov    $0xb,%edi
  40118b:	e8 b0 fb ff ff       	callq  400d40 <signal@plt>
  401190:	be 45 1d 40 00       	mov    $0x401d45,%esi
  401195:	bf 07 00 00 00       	mov    $0x7,%edi
  40119a:	e8 a1 fb ff ff       	callq  400d40 <signal@plt>
  40119f:	be e1 1d 40 00       	mov    $0x401de1,%esi
  4011a4:	bf 04 00 00 00       	mov    $0x4,%edi
  4011a9:	e8 92 fb ff ff       	callq  400d40 <signal@plt>
  4011ae:	83 3d 53 33 20 00 00 	cmpl   $0x0,0x203353(%rip)        # 604508 <is_checker>
  4011b5:	75 24                	jne    4011db <main+0x68>
  4011b7:	bd c5 2f 40 00       	mov    $0x402fc5,%ebp
  4011bc:	48 8b 05 dd 32 20 00 	mov    0x2032dd(%rip),%rax        # 6044a0 <stdin@@GLIBC_2.2.5>
  4011c3:	48 89 05 26 33 20 00 	mov    %rax,0x203326(%rip)        # 6044f0 <infile>
  4011ca:	41 bd 00 00 00 00    	mov    $0x0,%r13d
  4011d0:	41 be 00 00 00 00    	mov    $0x0,%r14d
  4011d6:	e9 85 00 00 00       	jmpq   401260 <main+0xed>
  4011db:	be 2f 1e 40 00       	mov    $0x401e2f,%esi
  4011e0:	bf 0e 00 00 00       	mov    $0xe,%edi
  4011e5:	e8 56 fb ff ff       	callq  400d40 <signal@plt>
  4011ea:	bf 05 00 00 00       	mov    $0x5,%edi
  4011ef:	e8 1c fb ff ff       	callq  400d10 <alarm@plt>
  4011f4:	bd ca 2f 40 00       	mov    $0x402fca,%ebp
  4011f9:	eb c1                	jmp    4011bc <main+0x49>
  4011fb:	48 8b 3b             	mov    (%rbx),%rdi
  4011fe:	e8 64 fd ff ff       	callq  400f67 <usage>
  401203:	be cf 30 40 00       	mov    $0x4030cf,%esi
  401208:	48 8b 3d 99 32 20 00 	mov    0x203299(%rip),%rdi        # 6044a8 <optarg@@GLIBC_2.2.5>
  40120f:	e8 dc fb ff ff       	callq  400df0 <fopen@plt>
  401214:	48 89 05 d5 32 20 00 	mov    %rax,0x2032d5(%rip)        # 6044f0 <infile>
  40121b:	48 85 c0             	test   %rax,%rax
  40121e:	75 40                	jne    401260 <main+0xed>
  401220:	48 8b 0d 81 32 20 00 	mov    0x203281(%rip),%rcx        # 6044a8 <optarg@@GLIBC_2.2.5>
  401227:	ba d2 2f 40 00       	mov    $0x402fd2,%edx
  40122c:	be 01 00 00 00       	mov    $0x1,%esi
  401231:	48 8b 3d 88 32 20 00 	mov    0x203288(%rip),%rdi        # 6044c0 <stderr@@GLIBC_2.2.5>
  401238:	e8 13 fc ff ff       	callq  400e50 <__fprintf_chk@plt>
  40123d:	b8 01 00 00 00       	mov    $0x1,%eax
  401242:	e9 cc 00 00 00       	jmpq   401313 <main+0x1a0>
  401247:	ba 10 00 00 00       	mov    $0x10,%edx
  40124c:	be 00 00 00 00       	mov    $0x0,%esi
  401251:	48 8b 3d 50 32 20 00 	mov    0x203250(%rip),%rdi        # 6044a8 <optarg@@GLIBC_2.2.5>
  401258:	e8 b3 fb ff ff       	callq  400e10 <strtoul@plt>
  40125d:	41 89 c6             	mov    %eax,%r14d
  401260:	48 89 ea             	mov    %rbp,%rdx
  401263:	48 89 de             	mov    %rbx,%rsi
  401266:	44 89 e7             	mov    %r12d,%edi
  401269:	e8 92 fb ff ff       	callq  400e00 <getopt@plt>
  40126e:	3c ff                	cmp    $0xff,%al
  401270:	74 57                	je     4012c9 <main+0x156>
  401272:	0f be d0             	movsbl %al,%edx
  401275:	83 e8 61             	sub    $0x61,%eax
  401278:	3c 10                	cmp    $0x10,%al
  40127a:	77 31                	ja     4012ad <main+0x13a>
  40127c:	0f b6 c0             	movzbl %al,%eax
  40127f:	ff 24 c5 10 30 40 00 	jmpq   *0x403010(,%rax,8)
  401286:	ba 0a 00 00 00       	mov    $0xa,%edx
  40128b:	be 00 00 00 00       	mov    $0x0,%esi
  401290:	48 8b 3d 11 32 20 00 	mov    0x203211(%rip),%rdi        # 6044a8 <optarg@@GLIBC_2.2.5>
  401297:	e8 d4 fa ff ff       	callq  400d70 <strtol@plt>
  40129c:	41 89 c5             	mov    %eax,%r13d
  40129f:	eb bf                	jmp    401260 <main+0xed>
  4012a1:	c7 05 dd 31 20 00 00 	movl   $0x0,0x2031dd(%rip)        # 604488 <notify>
  4012a8:	00 00 00 
  4012ab:	eb b3                	jmp    401260 <main+0xed>
  4012ad:	be ef 2f 40 00       	mov    $0x402fef,%esi
  4012b2:	bf 01 00 00 00       	mov    $0x1,%edi
  4012b7:	b8 00 00 00 00       	mov    $0x0,%eax
  4012bc:	e8 1f fb ff ff       	callq  400de0 <__printf_chk@plt>
  4012c1:	48 8b 3b             	mov    (%rbx),%rdi
  4012c4:	e8 9e fc ff ff       	callq  400f67 <usage>
  4012c9:	be 00 00 00 00       	mov    $0x0,%esi
  4012ce:	44 89 ef             	mov    %r13d,%edi
  4012d1:	e8 1b fd ff ff       	callq  400ff1 <initialize_target>
  4012d6:	83 3d 2b 32 20 00 00 	cmpl   $0x0,0x20322b(%rip)        # 604508 <is_checker>
  4012dd:	74 09                	je     4012e8 <main+0x175>
  4012df:	44 39 35 1a 32 20 00 	cmp    %r14d,0x20321a(%rip)        # 604500 <authkey>
  4012e6:	75 34                	jne    40131c <main+0x1a9>
  4012e8:	8b 15 16 32 20 00    	mov    0x203216(%rip),%edx        # 604504 <cookie>
  4012ee:	be 02 30 40 00       	mov    $0x403002,%esi
  4012f3:	bf 01 00 00 00       	mov    $0x1,%edi
  4012f8:	b8 00 00 00 00       	mov    $0x0,%eax
  4012fd:	e8 de fa ff ff       	callq  400de0 <__printf_chk@plt>
  401302:	48 8b 3d 77 31 20 00 	mov    0x203177(%rip),%rdi        # 604480 <buf_offset>
  401309:	e8 23 0c 00 00       	callq  401f31 <stable_launch>
  40130e:	b8 00 00 00 00       	mov    $0x0,%eax
  401313:	5b                   	pop    %rbx
  401314:	5d                   	pop    %rbp
  401315:	41 5c                	pop    %r12
  401317:	41 5d                	pop    %r13
  401319:	41 5e                	pop    %r14
  40131b:	c3                   	retq   
  40131c:	44 89 f2             	mov    %r14d,%edx
  40131f:	be 28 2f 40 00       	mov    $0x402f28,%esi
  401324:	bf 01 00 00 00       	mov    $0x1,%edi
  401329:	b8 00 00 00 00       	mov    $0x0,%eax
  40132e:	e8 ad fa ff ff       	callq  400de0 <__printf_chk@plt>
  401333:	b8 00 00 00 00       	mov    $0x0,%eax
  401338:	e8 91 06 00 00       	callq  4019ce <check_fail>
  40133d:	eb a9                	jmp    4012e8 <main+0x175>

000000000040133f <scramble>:
  40133f:	48 83 ec 38          	sub    $0x38,%rsp
  401343:	64 48 8b 04 25 28 00 	mov    %fs:0x28,%rax
  40134a:	00 00 
  40134c:	48 89 44 24 28       	mov    %rax,0x28(%rsp)
  401351:	31 c0                	xor    %eax,%eax
  401353:	eb 10                	jmp    401365 <scramble+0x26>
  401355:	69 d0 f2 98 00 00    	imul   $0x98f2,%eax,%edx
  40135b:	01 fa                	add    %edi,%edx
  40135d:	89 c1                	mov    %eax,%ecx
  40135f:	89 14 8c             	mov    %edx,(%rsp,%rcx,4)
  401362:	83 c0 01             	add    $0x1,%eax
  401365:	83 f8 09             	cmp    $0x9,%eax
  401368:	76 eb                	jbe    401355 <scramble+0x16>
  40136a:	8b 44 24 04          	mov    0x4(%rsp),%eax
  40136e:	69 c0 f2 1d 00 00    	imul   $0x1df2,%eax,%eax
  401374:	89 44 24 04          	mov    %eax,0x4(%rsp)
  401378:	8b 44 24 04          	mov    0x4(%rsp),%eax
  40137c:	69 c0 6c 16 00 00    	imul   $0x166c,%eax,%eax
  401382:	89 44 24 04          	mov    %eax,0x4(%rsp)
  401386:	8b 44 24 08          	mov    0x8(%rsp),%eax
  40138a:	69 c0 a1 22 00 00    	imul   $0x22a1,%eax,%eax
  401390:	89 44 24 08          	mov    %eax,0x8(%rsp)
  401394:	8b 44 24 1c          	mov    0x1c(%rsp),%eax
  401398:	69 c0 57 26 00 00    	imul   $0x2657,%eax,%eax
  40139e:	89 44 24 1c          	mov    %eax,0x1c(%rsp)
  4013a2:	8b 44 24 14          	mov    0x14(%rsp),%eax
  4013a6:	69 c0 6f 34 00 00    	imul   $0x346f,%eax,%eax
  4013ac:	89 44 24 14          	mov    %eax,0x14(%rsp)
  4013b0:	8b 44 24 14          	mov    0x14(%rsp),%eax
  4013b4:	69 c0 14 78 00 00    	imul   $0x7814,%eax,%eax
  4013ba:	89 44 24 14          	mov    %eax,0x14(%rsp)
  4013be:	8b 44 24 1c          	mov    0x1c(%rsp),%eax
  4013c2:	69 c0 1f f3 00 00    	imul   $0xf31f,%eax,%eax
  4013c8:	89 44 24 1c          	mov    %eax,0x1c(%rsp)
  4013cc:	8b 44 24 14          	mov    0x14(%rsp),%eax
  4013d0:	69 c0 84 2b 00 00    	imul   $0x2b84,%eax,%eax
  4013d6:	89 44 24 14          	mov    %eax,0x14(%rsp)
  4013da:	8b 44 24 08          	mov    0x8(%rsp),%eax
  4013de:	69 c0 e5 19 00 00    	imul   $0x19e5,%eax,%eax
  4013e4:	89 44 24 08          	mov    %eax,0x8(%rsp)
  4013e8:	8b 44 24 24          	mov    0x24(%rsp),%eax
  4013ec:	69 c0 75 54 00 00    	imul   $0x5475,%eax,%eax
  4013f2:	89 44 24 24          	mov    %eax,0x24(%rsp)
  4013f6:	8b 04 24             	mov    (%rsp),%eax
  4013f9:	69 c0 66 b8 00 00    	imul   $0xb866,%eax,%eax
  4013ff:	89 04 24             	mov    %eax,(%rsp)
  401402:	8b 44 24 14          	mov    0x14(%rsp),%eax
  401406:	69 c0 93 76 00 00    	imul   $0x7693,%eax,%eax
  40140c:	89 44 24 14          	mov    %eax,0x14(%rsp)
  401410:	8b 44 24 24          	mov    0x24(%rsp),%eax
  401414:	69 c0 59 92 00 00    	imul   $0x9259,%eax,%eax
  40141a:	89 44 24 24          	mov    %eax,0x24(%rsp)
  40141e:	8b 44 24 14          	mov    0x14(%rsp),%eax
  401422:	69 c0 23 8f 00 00    	imul   $0x8f23,%eax,%eax
  401428:	89 44 24 14          	mov    %eax,0x14(%rsp)
  40142c:	8b 44 24 0c          	mov    0xc(%rsp),%eax
  401430:	69 c0 c5 26 00 00    	imul   $0x26c5,%eax,%eax
  401436:	89 44 24 0c          	mov    %eax,0xc(%rsp)
  40143a:	8b 44 24 04          	mov    0x4(%rsp),%eax
  40143e:	69 c0 f7 d4 00 00    	imul   $0xd4f7,%eax,%eax
  401444:	89 44 24 04          	mov    %eax,0x4(%rsp)
  401448:	8b 44 24 0c          	mov    0xc(%rsp),%eax
  40144c:	69 c0 76 49 00 00    	imul   $0x4976,%eax,%eax
  401452:	89 44 24 0c          	mov    %eax,0xc(%rsp)
  401456:	8b 44 24 24          	mov    0x24(%rsp),%eax
  40145a:	69 c0 5e da 00 00    	imul   $0xda5e,%eax,%eax
  401460:	89 44 24 24          	mov    %eax,0x24(%rsp)
  401464:	8b 44 24 08          	mov    0x8(%rsp),%eax
  401468:	69 c0 6d c2 00 00    	imul   $0xc26d,%eax,%eax
  40146e:	89 44 24 08          	mov    %eax,0x8(%rsp)
  401472:	8b 44 24 1c          	mov    0x1c(%rsp),%eax
  401476:	69 c0 69 83 00 00    	imul   $0x8369,%eax,%eax
  40147c:	89 44 24 1c          	mov    %eax,0x1c(%rsp)
  401480:	8b 44 24 04          	mov    0x4(%rsp),%eax
  401484:	69 c0 13 ca 00 00    	imul   $0xca13,%eax,%eax
  40148a:	89 44 24 04          	mov    %eax,0x4(%rsp)
  40148e:	8b 44 24 20          	mov    0x20(%rsp),%eax
  401492:	69 c0 38 ce 00 00    	imul   $0xce38,%eax,%eax
  401498:	89 44 24 20          	mov    %eax,0x20(%rsp)
  40149c:	8b 44 24 18          	mov    0x18(%rsp),%eax
  4014a0:	69 c0 31 78 00 00    	imul   $0x7831,%eax,%eax
  4014a6:	89 44 24 18          	mov    %eax,0x18(%rsp)
  4014aa:	8b 44 24 18          	mov    0x18(%rsp),%eax
  4014ae:	69 c0 f9 1c 00 00    	imul   $0x1cf9,%eax,%eax
  4014b4:	89 44 24 18          	mov    %eax,0x18(%rsp)
  4014b8:	8b 44 24 14          	mov    0x14(%rsp),%eax
  4014bc:	69 c0 76 21 00 00    	imul   $0x2176,%eax,%eax
  4014c2:	89 44 24 14          	mov    %eax,0x14(%rsp)
  4014c6:	8b 44 24 24          	mov    0x24(%rsp),%eax
  4014ca:	69 c0 9b 72 00 00    	imul   $0x729b,%eax,%eax
  4014d0:	89 44 24 24          	mov    %eax,0x24(%rsp)
  4014d4:	8b 04 24             	mov    (%rsp),%eax
  4014d7:	69 c0 bb 21 00 00    	imul   $0x21bb,%eax,%eax
  4014dd:	89 04 24             	mov    %eax,(%rsp)
  4014e0:	8b 44 24 18          	mov    0x18(%rsp),%eax
  4014e4:	69 c0 f4 6f 00 00    	imul   $0x6ff4,%eax,%eax
  4014ea:	89 44 24 18          	mov    %eax,0x18(%rsp)
  4014ee:	8b 44 24 24          	mov    0x24(%rsp),%eax
  4014f2:	69 c0 da 46 00 00    	imul   $0x46da,%eax,%eax
  4014f8:	89 44 24 24          	mov    %eax,0x24(%rsp)
  4014fc:	8b 44 24 1c          	mov    0x1c(%rsp),%eax
  401500:	69 c0 19 f0 00 00    	imul   $0xf019,%eax,%eax
  401506:	89 44 24 1c          	mov    %eax,0x1c(%rsp)
  40150a:	8b 44 24 20          	mov    0x20(%rsp),%eax
  40150e:	69 c0 fc c1 00 00    	imul   $0xc1fc,%eax,%eax
  401514:	89 44 24 20          	mov    %eax,0x20(%rsp)
  401518:	8b 44 24 20          	mov    0x20(%rsp),%eax
  40151c:	69 c0 57 b2 00 00    	imul   $0xb257,%eax,%eax
  401522:	89 44 24 20          	mov    %eax,0x20(%rsp)
  401526:	8b 44 24 14          	mov    0x14(%rsp),%eax
  40152a:	69 c0 74 b0 00 00    	imul   $0xb074,%eax,%eax
  401530:	89 44 24 14          	mov    %eax,0x14(%rsp)
  401534:	8b 44 24 0c          	mov    0xc(%rsp),%eax
  401538:	69 c0 89 77 00 00    	imul   $0x7789,%eax,%eax
  40153e:	89 44 24 0c          	mov    %eax,0xc(%rsp)
  401542:	8b 44 24 18          	mov    0x18(%rsp),%eax
  401546:	69 c0 6b 8d 00 00    	imul   $0x8d6b,%eax,%eax
  40154c:	89 44 24 18          	mov    %eax,0x18(%rsp)
  401550:	8b 44 24 20          	mov    0x20(%rsp),%eax
  401554:	69 c0 be 69 00 00    	imul   $0x69be,%eax,%eax
  40155a:	89 44 24 20          	mov    %eax,0x20(%rsp)
  40155e:	8b 44 24 08          	mov    0x8(%rsp),%eax
  401562:	69 c0 70 f6 00 00    	imul   $0xf670,%eax,%eax
  401568:	89 44 24 08          	mov    %eax,0x8(%rsp)
  40156c:	8b 44 24 0c          	mov    0xc(%rsp),%eax
  401570:	69 c0 b1 14 00 00    	imul   $0x14b1,%eax,%eax
  401576:	89 44 24 0c          	mov    %eax,0xc(%rsp)
  40157a:	8b 44 24 08          	mov    0x8(%rsp),%eax
  40157e:	69 c0 b3 31 00 00    	imul   $0x31b3,%eax,%eax
  401584:	89 44 24 08          	mov    %eax,0x8(%rsp)
  401588:	8b 44 24 24          	mov    0x24(%rsp),%eax
  40158c:	69 c0 b7 00 00 00    	imul   $0xb7,%eax,%eax
  401592:	89 44 24 24          	mov    %eax,0x24(%rsp)
  401596:	8b 44 24 18          	mov    0x18(%rsp),%eax
  40159a:	69 c0 19 a3 00 00    	imul   $0xa319,%eax,%eax
  4015a0:	89 44 24 18          	mov    %eax,0x18(%rsp)
  4015a4:	8b 44 24 08          	mov    0x8(%rsp),%eax
  4015a8:	69 c0 06 2d 00 00    	imul   $0x2d06,%eax,%eax
  4015ae:	89 44 24 08          	mov    %eax,0x8(%rsp)
  4015b2:	8b 44 24 20          	mov    0x20(%rsp),%eax
  4015b6:	69 c0 81 5c 00 00    	imul   $0x5c81,%eax,%eax
  4015bc:	89 44 24 20          	mov    %eax,0x20(%rsp)
  4015c0:	8b 44 24 04          	mov    0x4(%rsp),%eax
  4015c4:	69 c0 e8 78 00 00    	imul   $0x78e8,%eax,%eax
  4015ca:	89 44 24 04          	mov    %eax,0x4(%rsp)
  4015ce:	8b 44 24 14          	mov    0x14(%rsp),%eax
  4015d2:	69 c0 11 9c 00 00    	imul   $0x9c11,%eax,%eax
  4015d8:	89 44 24 14          	mov    %eax,0x14(%rsp)
  4015dc:	8b 44 24 04          	mov    0x4(%rsp),%eax
  4015e0:	69 c0 fa 10 00 00    	imul   $0x10fa,%eax,%eax
  4015e6:	89 44 24 04          	mov    %eax,0x4(%rsp)
  4015ea:	8b 44 24 24          	mov    0x24(%rsp),%eax
  4015ee:	69 c0 12 2e 00 00    	imul   $0x2e12,%eax,%eax
  4015f4:	89 44 24 24          	mov    %eax,0x24(%rsp)
  4015f8:	8b 04 24             	mov    (%rsp),%eax
  4015fb:	69 c0 7f 69 00 00    	imul   $0x697f,%eax,%eax
  401601:	89 04 24             	mov    %eax,(%rsp)
  401604:	8b 44 24 04          	mov    0x4(%rsp),%eax
  401608:	69 c0 07 50 00 00    	imul   $0x5007,%eax,%eax
  40160e:	89 44 24 04          	mov    %eax,0x4(%rsp)
  401612:	8b 44 24 10          	mov    0x10(%rsp),%eax
  401616:	69 c0 67 51 00 00    	imul   $0x5167,%eax,%eax
  40161c:	89 44 24 10          	mov    %eax,0x10(%rsp)
  401620:	8b 44 24 18          	mov    0x18(%rsp),%eax
  401624:	69 c0 fb db 00 00    	imul   $0xdbfb,%eax,%eax
  40162a:	89 44 24 18          	mov    %eax,0x18(%rsp)
  40162e:	8b 44 24 04          	mov    0x4(%rsp),%eax
  401632:	69 c0 f1 34 00 00    	imul   $0x34f1,%eax,%eax
  401638:	89 44 24 04          	mov    %eax,0x4(%rsp)
  40163c:	8b 44 24 08          	mov    0x8(%rsp),%eax
  401640:	69 c0 1c f3 00 00    	imul   $0xf31c,%eax,%eax
  401646:	89 44 24 08          	mov    %eax,0x8(%rsp)
  40164a:	8b 44 24 24          	mov    0x24(%rsp),%eax
  40164e:	69 c0 0c 41 00 00    	imul   $0x410c,%eax,%eax
  401654:	89 44 24 24          	mov    %eax,0x24(%rsp)
  401658:	8b 44 24 14          	mov    0x14(%rsp),%eax
  40165c:	69 c0 4c 7b 00 00    	imul   $0x7b4c,%eax,%eax
  401662:	89 44 24 14          	mov    %eax,0x14(%rsp)
  401666:	8b 44 24 10          	mov    0x10(%rsp),%eax
  40166a:	69 c0 f9 77 00 00    	imul   $0x77f9,%eax,%eax
  401670:	89 44 24 10          	mov    %eax,0x10(%rsp)
  401674:	8b 44 24 04          	mov    0x4(%rsp),%eax
  401678:	69 c0 16 b5 00 00    	imul   $0xb516,%eax,%eax
  40167e:	89 44 24 04          	mov    %eax,0x4(%rsp)
  401682:	8b 44 24 04          	mov    0x4(%rsp),%eax
  401686:	69 c0 3a e3 00 00    	imul   $0xe33a,%eax,%eax
  40168c:	89 44 24 04          	mov    %eax,0x4(%rsp)
  401690:	8b 44 24 04          	mov    0x4(%rsp),%eax
  401694:	69 c0 fa 41 00 00    	imul   $0x41fa,%eax,%eax
  40169a:	89 44 24 04          	mov    %eax,0x4(%rsp)
  40169e:	8b 44 24 24          	mov    0x24(%rsp),%eax
  4016a2:	69 c0 f2 b4 00 00    	imul   $0xb4f2,%eax,%eax
  4016a8:	89 44 24 24          	mov    %eax,0x24(%rsp)
  4016ac:	8b 44 24 10          	mov    0x10(%rsp),%eax
  4016b0:	69 c0 24 c5 00 00    	imul   $0xc524,%eax,%eax
  4016b6:	89 44 24 10          	mov    %eax,0x10(%rsp)
  4016ba:	8b 44 24 08          	mov    0x8(%rsp),%eax
  4016be:	69 c0 19 3c 00 00    	imul   $0x3c19,%eax,%eax
  4016c4:	89 44 24 08          	mov    %eax,0x8(%rsp)
  4016c8:	8b 44 24 18          	mov    0x18(%rsp),%eax
  4016cc:	69 c0 3e 89 00 00    	imul   $0x893e,%eax,%eax
  4016d2:	89 44 24 18          	mov    %eax,0x18(%rsp)
  4016d6:	8b 44 24 04          	mov    0x4(%rsp),%eax
  4016da:	69 c0 bc d1 00 00    	imul   $0xd1bc,%eax,%eax
  4016e0:	89 44 24 04          	mov    %eax,0x4(%rsp)
  4016e4:	8b 04 24             	mov    (%rsp),%eax
  4016e7:	69 c0 a1 86 00 00    	imul   $0x86a1,%eax,%eax
  4016ed:	89 04 24             	mov    %eax,(%rsp)
  4016f0:	8b 44 24 24          	mov    0x24(%rsp),%eax
  4016f4:	69 c0 b7 b6 00 00    	imul   $0xb6b7,%eax,%eax
  4016fa:	89 44 24 24          	mov    %eax,0x24(%rsp)
  4016fe:	8b 44 24 08          	mov    0x8(%rsp),%eax
  401702:	69 c0 4a de 00 00    	imul   $0xde4a,%eax,%eax
  401708:	89 44 24 08          	mov    %eax,0x8(%rsp)
  40170c:	8b 44 24 10          	mov    0x10(%rsp),%eax
  401710:	69 c0 08 35 00 00    	imul   $0x3508,%eax,%eax
  401716:	89 44 24 10          	mov    %eax,0x10(%rsp)
  40171a:	8b 44 24 1c          	mov    0x1c(%rsp),%eax
  40171e:	69 c0 4a 35 00 00    	imul   $0x354a,%eax,%eax
  401724:	89 44 24 1c          	mov    %eax,0x1c(%rsp)
  401728:	8b 44 24 0c          	mov    0xc(%rsp),%eax
  40172c:	69 c0 36 f6 00 00    	imul   $0xf636,%eax,%eax
  401732:	89 44 24 0c          	mov    %eax,0xc(%rsp)
  401736:	8b 44 24 14          	mov    0x14(%rsp),%eax
  40173a:	69 c0 d8 b7 00 00    	imul   $0xb7d8,%eax,%eax
  401740:	89 44 24 14          	mov    %eax,0x14(%rsp)
  401744:	ba 00 00 00 00       	mov    $0x0,%edx
  401749:	b8 00 00 00 00       	mov    $0x0,%eax
  40174e:	eb 0a                	jmp    40175a <scramble+0x41b>
  401750:	89 d1                	mov    %edx,%ecx
  401752:	8b 0c 8c             	mov    (%rsp,%rcx,4),%ecx
  401755:	01 c8                	add    %ecx,%eax
  401757:	83 c2 01             	add    $0x1,%edx
  40175a:	83 fa 09             	cmp    $0x9,%edx
  40175d:	76 f1                	jbe    401750 <scramble+0x411>
  40175f:	48 8b 74 24 28       	mov    0x28(%rsp),%rsi
  401764:	64 48 33 34 25 28 00 	xor    %fs:0x28,%rsi
  40176b:	00 00 
  40176d:	75 05                	jne    401774 <scramble+0x435>
  40176f:	48 83 c4 38          	add    $0x38,%rsp
  401773:	c3                   	retq   
  401774:	e8 67 f5 ff ff       	callq  400ce0 <__stack_chk_fail@plt>

0000000000401779 <getbuf>:
  401779:	48 83 ec 18          	sub    $0x18,%rsp
  40177d:	48 89 e7             	mov    %rsp,%rdi
  401780:	e8 7e 02 00 00       	callq  401a03 <Gets>
  401785:	b8 01 00 00 00       	mov    $0x1,%eax
  40178a:	48 83 c4 18          	add    $0x18,%rsp
  40178e:	c3                   	retq   

000000000040178f <touch1>:
  40178f:	48 83 ec 08          	sub    $0x8,%rsp
  401793:	c7 05 5f 2d 20 00 01 	movl   $0x1,0x202d5f(%rip)        # 6044fc <vlevel>
  40179a:	00 00 00 
  40179d:	bf d1 30 40 00       	mov    $0x4030d1,%edi
  4017a2:	e8 19 f5 ff ff       	callq  400cc0 <puts@plt>
  4017a7:	bf 01 00 00 00       	mov    $0x1,%edi
  4017ac:	e8 a7 04 00 00       	callq  401c58 <validate>
  4017b1:	bf 00 00 00 00       	mov    $0x0,%edi
  4017b6:	e8 75 f6 ff ff       	callq  400e30 <exit@plt>

00000000004017bb <touch2>:
  4017bb:	48 83 ec 08          	sub    $0x8,%rsp
  4017bf:	89 fa                	mov    %edi,%edx
  4017c1:	c7 05 31 2d 20 00 02 	movl   $0x2,0x202d31(%rip)        # 6044fc <vlevel>
  4017c8:	00 00 00 
  4017cb:	39 3d 33 2d 20 00    	cmp    %edi,0x202d33(%rip)        # 604504 <cookie>
  4017d1:	74 28                	je     4017fb <touch2+0x40>
  4017d3:	be 20 31 40 00       	mov    $0x403120,%esi
  4017d8:	bf 01 00 00 00       	mov    $0x1,%edi
  4017dd:	b8 00 00 00 00       	mov    $0x0,%eax
  4017e2:	e8 f9 f5 ff ff       	callq  400de0 <__printf_chk@plt>
  4017e7:	bf 02 00 00 00       	mov    $0x2,%edi
  4017ec:	e8 2c 05 00 00       	callq  401d1d <fail>
  4017f1:	bf 00 00 00 00       	mov    $0x0,%edi
  4017f6:	e8 35 f6 ff ff       	callq  400e30 <exit@plt>
  4017fb:	be f8 30 40 00       	mov    $0x4030f8,%esi
  401800:	bf 01 00 00 00       	mov    $0x1,%edi
  401805:	b8 00 00 00 00       	mov    $0x0,%eax
  40180a:	e8 d1 f5 ff ff       	callq  400de0 <__printf_chk@plt>
  40180f:	bf 02 00 00 00       	mov    $0x2,%edi
  401814:	e8 3f 04 00 00       	callq  401c58 <validate>
  401819:	eb d6                	jmp    4017f1 <touch2+0x36>

000000000040181b <hexmatch>:
  40181b:	41 54                	push   %r12
  40181d:	55                   	push   %rbp
  40181e:	53                   	push   %rbx
  40181f:	48 83 c4 80          	add    $0xffffffffffffff80,%rsp
  401823:	89 fd                	mov    %edi,%ebp
  401825:	48 89 f3             	mov    %rsi,%rbx
  401828:	64 48 8b 04 25 28 00 	mov    %fs:0x28,%rax
  40182f:	00 00 
  401831:	48 89 44 24 78       	mov    %rax,0x78(%rsp)
  401836:	31 c0                	xor    %eax,%eax
  401838:	e8 63 f5 ff ff       	callq  400da0 <random@plt>
  40183d:	48 89 c1             	mov    %rax,%rcx
  401840:	48 ba 0b d7 a3 70 3d 	movabs $0xa3d70a3d70a3d70b,%rdx
  401847:	0a d7 a3 
  40184a:	48 f7 ea             	imul   %rdx
  40184d:	48 01 ca             	add    %rcx,%rdx
  401850:	48 c1 fa 06          	sar    $0x6,%rdx
  401854:	48 89 c8             	mov    %rcx,%rax
  401857:	48 c1 f8 3f          	sar    $0x3f,%rax
  40185b:	48 29 c2             	sub    %rax,%rdx
  40185e:	48 8d 04 92          	lea    (%rdx,%rdx,4),%rax
  401862:	48 8d 14 80          	lea    (%rax,%rax,4),%rdx
  401866:	48 8d 04 95 00 00 00 	lea    0x0(,%rdx,4),%rax
  40186d:	00 
  40186e:	48 29 c1             	sub    %rax,%rcx
  401871:	4c 8d 24 0c          	lea    (%rsp,%rcx,1),%r12
  401875:	41 89 e8             	mov    %ebp,%r8d
  401878:	b9 ee 30 40 00       	mov    $0x4030ee,%ecx
  40187d:	48 c7 c2 ff ff ff ff 	mov    $0xffffffffffffffff,%rdx
  401884:	be 01 00 00 00       	mov    $0x1,%esi
  401889:	4c 89 e7             	mov    %r12,%rdi
  40188c:	b8 00 00 00 00       	mov    $0x0,%eax
  401891:	e8 ca f5 ff ff       	callq  400e60 <__sprintf_chk@plt>
  401896:	ba 09 00 00 00       	mov    $0x9,%edx
  40189b:	4c 89 e6             	mov    %r12,%rsi
  40189e:	48 89 df             	mov    %rbx,%rdi
  4018a1:	e8 fa f3 ff ff       	callq  400ca0 <strncmp@plt>
  4018a6:	85 c0                	test   %eax,%eax
  4018a8:	0f 94 c0             	sete   %al
  4018ab:	48 8b 5c 24 78       	mov    0x78(%rsp),%rbx
  4018b0:	64 48 33 1c 25 28 00 	xor    %fs:0x28,%rbx
  4018b7:	00 00 
  4018b9:	75 0c                	jne    4018c7 <hexmatch+0xac>
  4018bb:	0f b6 c0             	movzbl %al,%eax
  4018be:	48 83 ec 80          	sub    $0xffffffffffffff80,%rsp
  4018c2:	5b                   	pop    %rbx
  4018c3:	5d                   	pop    %rbp
  4018c4:	41 5c                	pop    %r12
  4018c6:	c3                   	retq   
  4018c7:	e8 14 f4 ff ff       	callq  400ce0 <__stack_chk_fail@plt>

00000000004018cc <touch3>:
  4018cc:	53                   	push   %rbx
  4018cd:	48 89 fb             	mov    %rdi,%rbx
  4018d0:	c7 05 22 2c 20 00 03 	movl   $0x3,0x202c22(%rip)        # 6044fc <vlevel>
  4018d7:	00 00 00 
  4018da:	48 89 fe             	mov    %rdi,%rsi
  4018dd:	8b 3d 21 2c 20 00    	mov    0x202c21(%rip),%edi        # 604504 <cookie>
  4018e3:	e8 33 ff ff ff       	callq  40181b <hexmatch>
  4018e8:	85 c0                	test   %eax,%eax
  4018ea:	74 2b                	je     401917 <touch3+0x4b>
  4018ec:	48 89 da             	mov    %rbx,%rdx
  4018ef:	be 48 31 40 00       	mov    $0x403148,%esi
  4018f4:	bf 01 00 00 00       	mov    $0x1,%edi
  4018f9:	b8 00 00 00 00       	mov    $0x0,%eax
  4018fe:	e8 dd f4 ff ff       	callq  400de0 <__printf_chk@plt>
  401903:	bf 03 00 00 00       	mov    $0x3,%edi
  401908:	e8 4b 03 00 00       	callq  401c58 <validate>
  40190d:	bf 00 00 00 00       	mov    $0x0,%edi
  401912:	e8 19 f5 ff ff       	callq  400e30 <exit@plt>
  401917:	48 89 da             	mov    %rbx,%rdx
  40191a:	be 70 31 40 00       	mov    $0x403170,%esi
  40191f:	bf 01 00 00 00       	mov    $0x1,%edi
  401924:	b8 00 00 00 00       	mov    $0x0,%eax
  401929:	e8 b2 f4 ff ff       	callq  400de0 <__printf_chk@plt>
  40192e:	bf 03 00 00 00       	mov    $0x3,%edi
  401933:	e8 e5 03 00 00       	callq  401d1d <fail>
  401938:	eb d3                	jmp    40190d <touch3+0x41>

000000000040193a <test>:
  40193a:	48 83 ec 08          	sub    $0x8,%rsp
  40193e:	b8 00 00 00 00       	mov    $0x0,%eax
  401943:	e8 31 fe ff ff       	callq  401779 <getbuf>
  401948:	89 c2                	mov    %eax,%edx
  40194a:	be 98 31 40 00       	mov    $0x403198,%esi
  40194f:	bf 01 00 00 00       	mov    $0x1,%edi
  401954:	b8 00 00 00 00       	mov    $0x0,%eax
  401959:	e8 82 f4 ff ff       	callq  400de0 <__printf_chk@plt>
  40195e:	48 83 c4 08          	add    $0x8,%rsp
  401962:	c3                   	retq   

0000000000401963 <save_char>:
  401963:	8b 05 bb 37 20 00    	mov    0x2037bb(%rip),%eax        # 605124 <gets_cnt>
  401969:	3d ff 03 00 00       	cmp    $0x3ff,%eax
  40196e:	7f 49                	jg     4019b9 <save_char+0x56>
  401970:	89 f9                	mov    %edi,%ecx
  401972:	c0 e9 04             	shr    $0x4,%cl
  401975:	8d 14 40             	lea    (%rax,%rax,2),%edx
  401978:	83 e1 0f             	and    $0xf,%ecx
  40197b:	0f b6 b1 c0 34 40 00 	movzbl 0x4034c0(%rcx),%esi
  401982:	48 63 ca             	movslq %edx,%rcx
  401985:	40 88 b1 20 45 60 00 	mov    %sil,0x604520(%rcx)
  40198c:	8d 4a 01             	lea    0x1(%rdx),%ecx
  40198f:	83 e7 0f             	and    $0xf,%edi
  401992:	0f b6 b7 c0 34 40 00 	movzbl 0x4034c0(%rdi),%esi
  401999:	48 63 c9             	movslq %ecx,%rcx
  40199c:	40 88 b1 20 45 60 00 	mov    %sil,0x604520(%rcx)
  4019a3:	83 c2 02             	add    $0x2,%edx
  4019a6:	48 63 d2             	movslq %edx,%rdx
  4019a9:	c6 82 20 45 60 00 20 	movb   $0x20,0x604520(%rdx)
  4019b0:	83 c0 01             	add    $0x1,%eax
  4019b3:	89 05 6b 37 20 00    	mov    %eax,0x20376b(%rip)        # 605124 <gets_cnt>
  4019b9:	f3 c3                	repz retq 

00000000004019bb <save_term>:
  4019bb:	8b 05 63 37 20 00    	mov    0x203763(%rip),%eax        # 605124 <gets_cnt>
  4019c1:	8d 04 40             	lea    (%rax,%rax,2),%eax
  4019c4:	48 98                	cltq   
  4019c6:	c6 80 20 45 60 00 00 	movb   $0x0,0x604520(%rax)
  4019cd:	c3                   	retq   

00000000004019ce <check_fail>:
  4019ce:	48 83 ec 08          	sub    $0x8,%rsp
  4019d2:	0f be 15 4f 37 20 00 	movsbl 0x20374f(%rip),%edx        # 605128 <target_prefix>
  4019d9:	41 b8 20 45 60 00    	mov    $0x604520,%r8d
  4019df:	8b 0d 13 2b 20 00    	mov    0x202b13(%rip),%ecx        # 6044f8 <check_level>
  4019e5:	be bb 31 40 00       	mov    $0x4031bb,%esi
  4019ea:	bf 01 00 00 00       	mov    $0x1,%edi
  4019ef:	b8 00 00 00 00       	mov    $0x0,%eax
  4019f4:	e8 e7 f3 ff ff       	callq  400de0 <__printf_chk@plt>
  4019f9:	bf 01 00 00 00       	mov    $0x1,%edi
  4019fe:	e8 2d f4 ff ff       	callq  400e30 <exit@plt>

0000000000401a03 <Gets>:
  401a03:	41 54                	push   %r12
  401a05:	55                   	push   %rbp
  401a06:	53                   	push   %rbx
  401a07:	49 89 fc             	mov    %rdi,%r12
  401a0a:	c7 05 10 37 20 00 00 	movl   $0x0,0x203710(%rip)        # 605124 <gets_cnt>
  401a11:	00 00 00 
  401a14:	48 89 fb             	mov    %rdi,%rbx
  401a17:	eb 11                	jmp    401a2a <Gets+0x27>
  401a19:	48 8d 6b 01          	lea    0x1(%rbx),%rbp
  401a1d:	88 03                	mov    %al,(%rbx)
  401a1f:	0f b6 f8             	movzbl %al,%edi
  401a22:	e8 3c ff ff ff       	callq  401963 <save_char>
  401a27:	48 89 eb             	mov    %rbp,%rbx
  401a2a:	48 8b 3d bf 2a 20 00 	mov    0x202abf(%rip),%rdi        # 6044f0 <infile>
  401a31:	e8 7a f3 ff ff       	callq  400db0 <_IO_getc@plt>
  401a36:	83 f8 ff             	cmp    $0xffffffff,%eax
  401a39:	74 05                	je     401a40 <Gets+0x3d>
  401a3b:	83 f8 0a             	cmp    $0xa,%eax
  401a3e:	75 d9                	jne    401a19 <Gets+0x16>
  401a40:	c6 03 00             	movb   $0x0,(%rbx)
  401a43:	b8 00 00 00 00       	mov    $0x0,%eax
  401a48:	e8 6e ff ff ff       	callq  4019bb <save_term>
  401a4d:	4c 89 e0             	mov    %r12,%rax
  401a50:	5b                   	pop    %rbx
  401a51:	5d                   	pop    %rbp
  401a52:	41 5c                	pop    %r12
  401a54:	c3                   	retq   

0000000000401a55 <notify_server>:
  401a55:	55                   	push   %rbp
  401a56:	53                   	push   %rbx
  401a57:	48 81 ec 18 40 00 00 	sub    $0x4018,%rsp
  401a5e:	64 48 8b 04 25 28 00 	mov    %fs:0x28,%rax
  401a65:	00 00 
  401a67:	48 89 84 24 08 40 00 	mov    %rax,0x4008(%rsp)
  401a6e:	00 
  401a6f:	31 c0                	xor    %eax,%eax
  401a71:	83 3d 90 2a 20 00 00 	cmpl   $0x0,0x202a90(%rip)        # 604508 <is_checker>
  401a78:	0f 85 c9 00 00 00    	jne    401b47 <notify_server+0xf2>
  401a7e:	89 fb                	mov    %edi,%ebx
  401a80:	8b 05 9e 36 20 00    	mov    0x20369e(%rip),%eax        # 605124 <gets_cnt>
  401a86:	83 c0 64             	add    $0x64,%eax
  401a89:	3d 00 20 00 00       	cmp    $0x2000,%eax
  401a8e:	0f 8f d4 00 00 00    	jg     401b68 <notify_server+0x113>
  401a94:	0f be 05 8d 36 20 00 	movsbl 0x20368d(%rip),%eax        # 605128 <target_prefix>
  401a9b:	83 3d e6 29 20 00 00 	cmpl   $0x0,0x2029e6(%rip)        # 604488 <notify>
  401aa2:	0f 84 de 00 00 00    	je     401b86 <notify_server+0x131>
  401aa8:	8b 15 52 2a 20 00    	mov    0x202a52(%rip),%edx        # 604500 <authkey>
  401aae:	85 db                	test   %ebx,%ebx
  401ab0:	0f 84 da 00 00 00    	je     401b90 <notify_server+0x13b>
  401ab6:	bd d1 31 40 00       	mov    $0x4031d1,%ebp
  401abb:	68 20 45 60 00       	pushq  $0x604520
  401ac0:	56                   	push   %rsi
  401ac1:	50                   	push   %rax
  401ac2:	52                   	push   %rdx
  401ac3:	49 89 e9             	mov    %rbp,%r9
  401ac6:	44 8b 05 7b 26 20 00 	mov    0x20267b(%rip),%r8d        # 604148 <target_id>
  401acd:	b9 db 31 40 00       	mov    $0x4031db,%ecx
  401ad2:	ba 00 20 00 00       	mov    $0x2000,%edx
  401ad7:	be 01 00 00 00       	mov    $0x1,%esi
  401adc:	48 8d 7c 24 20       	lea    0x20(%rsp),%rdi
  401ae1:	b8 00 00 00 00       	mov    $0x0,%eax
  401ae6:	e8 75 f3 ff ff       	callq  400e60 <__sprintf_chk@plt>
  401aeb:	48 83 c4 20          	add    $0x20,%rsp
  401aef:	83 3d 92 29 20 00 00 	cmpl   $0x0,0x202992(%rip)        # 604488 <notify>
  401af6:	0f 84 d3 00 00 00    	je     401bcf <notify_server+0x17a>
  401afc:	85 db                	test   %ebx,%ebx
  401afe:	0f 84 bc 00 00 00    	je     401bc0 <notify_server+0x16b>
  401b04:	4c 8d 8c 24 00 20 00 	lea    0x2000(%rsp),%r9
  401b0b:	00 
  401b0c:	41 b8 00 00 00 00    	mov    $0x0,%r8d
  401b12:	48 89 e1             	mov    %rsp,%rcx
  401b15:	48 8b 15 34 26 20 00 	mov    0x202634(%rip),%rdx        # 604150 <lab>
  401b1c:	48 8b 35 35 26 20 00 	mov    0x202635(%rip),%rsi        # 604158 <course>
  401b23:	48 8b 3d 16 26 20 00 	mov    0x202616(%rip),%rdi        # 604140 <user_id>
  401b2a:	e8 31 11 00 00       	callq  402c60 <driver_post>
  401b2f:	85 c0                	test   %eax,%eax
  401b31:	78 67                	js     401b9a <notify_server+0x145>
  401b33:	bf 20 33 40 00       	mov    $0x403320,%edi
  401b38:	e8 83 f1 ff ff       	callq  400cc0 <puts@plt>
  401b3d:	bf 03 32 40 00       	mov    $0x403203,%edi
  401b42:	e8 79 f1 ff ff       	callq  400cc0 <puts@plt>
  401b47:	48 8b 84 24 08 40 00 	mov    0x4008(%rsp),%rax
  401b4e:	00 
  401b4f:	64 48 33 04 25 28 00 	xor    %fs:0x28,%rax
  401b56:	00 00 
  401b58:	0f 85 f5 00 00 00    	jne    401c53 <notify_server+0x1fe>
  401b5e:	48 81 c4 18 40 00 00 	add    $0x4018,%rsp
  401b65:	5b                   	pop    %rbx
  401b66:	5d                   	pop    %rbp
  401b67:	c3                   	retq   
  401b68:	be f0 32 40 00       	mov    $0x4032f0,%esi
  401b6d:	bf 01 00 00 00       	mov    $0x1,%edi
  401b72:	b8 00 00 00 00       	mov    $0x0,%eax
  401b77:	e8 64 f2 ff ff       	callq  400de0 <__printf_chk@plt>
  401b7c:	bf 01 00 00 00       	mov    $0x1,%edi
  401b81:	e8 aa f2 ff ff       	callq  400e30 <exit@plt>
  401b86:	ba ff ff ff ff       	mov    $0xffffffff,%edx
  401b8b:	e9 1e ff ff ff       	jmpq   401aae <notify_server+0x59>
  401b90:	bd d6 31 40 00       	mov    $0x4031d6,%ebp
  401b95:	e9 21 ff ff ff       	jmpq   401abb <notify_server+0x66>
  401b9a:	48 8d 94 24 00 20 00 	lea    0x2000(%rsp),%rdx
  401ba1:	00 
  401ba2:	be f7 31 40 00       	mov    $0x4031f7,%esi
  401ba7:	bf 01 00 00 00       	mov    $0x1,%edi
  401bac:	b8 00 00 00 00       	mov    $0x0,%eax
  401bb1:	e8 2a f2 ff ff       	callq  400de0 <__printf_chk@plt>
  401bb6:	bf 01 00 00 00       	mov    $0x1,%edi
  401bbb:	e8 70 f2 ff ff       	callq  400e30 <exit@plt>
  401bc0:	bf 0d 32 40 00       	mov    $0x40320d,%edi
  401bc5:	e8 f6 f0 ff ff       	callq  400cc0 <puts@plt>
  401bca:	e9 78 ff ff ff       	jmpq   401b47 <notify_server+0xf2>
  401bcf:	48 89 ea             	mov    %rbp,%rdx
  401bd2:	be 58 33 40 00       	mov    $0x403358,%esi
  401bd7:	bf 01 00 00 00       	mov    $0x1,%edi
  401bdc:	b8 00 00 00 00       	mov    $0x0,%eax
  401be1:	e8 fa f1 ff ff       	callq  400de0 <__printf_chk@plt>
  401be6:	48 8b 15 53 25 20 00 	mov    0x202553(%rip),%rdx        # 604140 <user_id>
  401bed:	be 14 32 40 00       	mov    $0x403214,%esi
  401bf2:	bf 01 00 00 00       	mov    $0x1,%edi
  401bf7:	b8 00 00 00 00       	mov    $0x0,%eax
  401bfc:	e8 df f1 ff ff       	callq  400de0 <__printf_chk@plt>
  401c01:	48 8b 15 50 25 20 00 	mov    0x202550(%rip),%rdx        # 604158 <course>
  401c08:	be 21 32 40 00       	mov    $0x403221,%esi
  401c0d:	bf 01 00 00 00       	mov    $0x1,%edi
  401c12:	b8 00 00 00 00       	mov    $0x0,%eax
  401c17:	e8 c4 f1 ff ff       	callq  400de0 <__printf_chk@plt>
  401c1c:	48 8b 15 2d 25 20 00 	mov    0x20252d(%rip),%rdx        # 604150 <lab>
  401c23:	be 2d 32 40 00       	mov    $0x40322d,%esi
  401c28:	bf 01 00 00 00       	mov    $0x1,%edi
  401c2d:	b8 00 00 00 00       	mov    $0x0,%eax
  401c32:	e8 a9 f1 ff ff       	callq  400de0 <__printf_chk@plt>
  401c37:	48 89 e2             	mov    %rsp,%rdx
  401c3a:	be 36 32 40 00       	mov    $0x403236,%esi
  401c3f:	bf 01 00 00 00       	mov    $0x1,%edi
  401c44:	b8 00 00 00 00       	mov    $0x0,%eax
  401c49:	e8 92 f1 ff ff       	callq  400de0 <__printf_chk@plt>
  401c4e:	e9 f4 fe ff ff       	jmpq   401b47 <notify_server+0xf2>
  401c53:	e8 88 f0 ff ff       	callq  400ce0 <__stack_chk_fail@plt>

0000000000401c58 <validate>:
  401c58:	53                   	push   %rbx
  401c59:	89 fb                	mov    %edi,%ebx
  401c5b:	83 3d a6 28 20 00 00 	cmpl   $0x0,0x2028a6(%rip)        # 604508 <is_checker>
  401c62:	74 6b                	je     401ccf <validate+0x77>
  401c64:	39 3d 92 28 20 00    	cmp    %edi,0x202892(%rip)        # 6044fc <vlevel>
  401c6a:	75 2f                	jne    401c9b <validate+0x43>
  401c6c:	8b 15 86 28 20 00    	mov    0x202886(%rip),%edx        # 6044f8 <check_level>
  401c72:	39 fa                	cmp    %edi,%edx
  401c74:	75 39                	jne    401caf <validate+0x57>
  401c76:	0f be 15 ab 34 20 00 	movsbl 0x2034ab(%rip),%edx        # 605128 <target_prefix>
  401c7d:	41 b8 20 45 60 00    	mov    $0x604520,%r8d
  401c83:	89 f9                	mov    %edi,%ecx
  401c85:	be 60 32 40 00       	mov    $0x403260,%esi
  401c8a:	bf 01 00 00 00       	mov    $0x1,%edi
  401c8f:	b8 00 00 00 00       	mov    $0x0,%eax
  401c94:	e8 47 f1 ff ff       	callq  400de0 <__printf_chk@plt>
  401c99:	5b                   	pop    %rbx
  401c9a:	c3                   	retq   
  401c9b:	bf 42 32 40 00       	mov    $0x403242,%edi
  401ca0:	e8 1b f0 ff ff       	callq  400cc0 <puts@plt>
  401ca5:	b8 00 00 00 00       	mov    $0x0,%eax
  401caa:	e8 1f fd ff ff       	callq  4019ce <check_fail>
  401caf:	89 f9                	mov    %edi,%ecx
  401cb1:	be 80 33 40 00       	mov    $0x403380,%esi
  401cb6:	bf 01 00 00 00       	mov    $0x1,%edi
  401cbb:	b8 00 00 00 00       	mov    $0x0,%eax
  401cc0:	e8 1b f1 ff ff       	callq  400de0 <__printf_chk@plt>
  401cc5:	b8 00 00 00 00       	mov    $0x0,%eax
  401cca:	e8 ff fc ff ff       	callq  4019ce <check_fail>
  401ccf:	39 3d 27 28 20 00    	cmp    %edi,0x202827(%rip)        # 6044fc <vlevel>
  401cd5:	74 18                	je     401cef <validate+0x97>
  401cd7:	bf 42 32 40 00       	mov    $0x403242,%edi
  401cdc:	e8 df ef ff ff       	callq  400cc0 <puts@plt>
  401ce1:	89 de                	mov    %ebx,%esi
  401ce3:	bf 00 00 00 00       	mov    $0x0,%edi
  401ce8:	e8 68 fd ff ff       	callq  401a55 <notify_server>
  401ced:	eb aa                	jmp    401c99 <validate+0x41>
  401cef:	0f be 0d 32 34 20 00 	movsbl 0x203432(%rip),%ecx        # 605128 <target_prefix>
  401cf6:	89 fa                	mov    %edi,%edx
  401cf8:	be a8 33 40 00       	mov    $0x4033a8,%esi
  401cfd:	bf 01 00 00 00       	mov    $0x1,%edi
  401d02:	b8 00 00 00 00       	mov    $0x0,%eax
  401d07:	e8 d4 f0 ff ff       	callq  400de0 <__printf_chk@plt>
  401d0c:	89 de                	mov    %ebx,%esi
  401d0e:	bf 01 00 00 00       	mov    $0x1,%edi
  401d13:	e8 3d fd ff ff       	callq  401a55 <notify_server>
  401d18:	e9 7c ff ff ff       	jmpq   401c99 <validate+0x41>

0000000000401d1d <fail>:
  401d1d:	48 83 ec 08          	sub    $0x8,%rsp
  401d21:	83 3d e0 27 20 00 00 	cmpl   $0x0,0x2027e0(%rip)        # 604508 <is_checker>
  401d28:	75 11                	jne    401d3b <fail+0x1e>
  401d2a:	89 fe                	mov    %edi,%esi
  401d2c:	bf 00 00 00 00       	mov    $0x0,%edi
  401d31:	e8 1f fd ff ff       	callq  401a55 <notify_server>
  401d36:	48 83 c4 08          	add    $0x8,%rsp
  401d3a:	c3                   	retq   
  401d3b:	b8 00 00 00 00       	mov    $0x0,%eax
  401d40:	e8 89 fc ff ff       	callq  4019ce <check_fail>

0000000000401d45 <bushandler>:
  401d45:	48 83 ec 08          	sub    $0x8,%rsp
  401d49:	83 3d b8 27 20 00 00 	cmpl   $0x0,0x2027b8(%rip)        # 604508 <is_checker>
  401d50:	74 14                	je     401d66 <bushandler+0x21>
  401d52:	bf 75 32 40 00       	mov    $0x403275,%edi
  401d57:	e8 64 ef ff ff       	callq  400cc0 <puts@plt>
  401d5c:	b8 00 00 00 00       	mov    $0x0,%eax
  401d61:	e8 68 fc ff ff       	callq  4019ce <check_fail>
  401d66:	bf e0 33 40 00       	mov    $0x4033e0,%edi
  401d6b:	e8 50 ef ff ff       	callq  400cc0 <puts@plt>
  401d70:	bf 7f 32 40 00       	mov    $0x40327f,%edi
  401d75:	e8 46 ef ff ff       	callq  400cc0 <puts@plt>
  401d7a:	be 00 00 00 00       	mov    $0x0,%esi
  401d7f:	bf 00 00 00 00       	mov    $0x0,%edi
  401d84:	e8 cc fc ff ff       	callq  401a55 <notify_server>
  401d89:	bf 01 00 00 00       	mov    $0x1,%edi
  401d8e:	e8 9d f0 ff ff       	callq  400e30 <exit@plt>

0000000000401d93 <seghandler>:
  401d93:	48 83 ec 08          	sub    $0x8,%rsp
  401d97:	83 3d 6a 27 20 00 00 	cmpl   $0x0,0x20276a(%rip)        # 604508 <is_checker>
  401d9e:	74 14                	je     401db4 <seghandler+0x21>
  401da0:	bf 95 32 40 00       	mov    $0x403295,%edi
  401da5:	e8 16 ef ff ff       	callq  400cc0 <puts@plt>
  401daa:	b8 00 00 00 00       	mov    $0x0,%eax
  401daf:	e8 1a fc ff ff       	callq  4019ce <check_fail>
  401db4:	bf 00 34 40 00       	mov    $0x403400,%edi
  401db9:	e8 02 ef ff ff       	callq  400cc0 <puts@plt>
  401dbe:	bf 7f 32 40 00       	mov    $0x40327f,%edi
  401dc3:	e8 f8 ee ff ff       	callq  400cc0 <puts@plt>
  401dc8:	be 00 00 00 00       	mov    $0x0,%esi
  401dcd:	bf 00 00 00 00       	mov    $0x0,%edi
  401dd2:	e8 7e fc ff ff       	callq  401a55 <notify_server>
  401dd7:	bf 01 00 00 00       	mov    $0x1,%edi
  401ddc:	e8 4f f0 ff ff       	callq  400e30 <exit@plt>

0000000000401de1 <illegalhandler>:
  401de1:	48 83 ec 08          	sub    $0x8,%rsp
  401de5:	83 3d 1c 27 20 00 00 	cmpl   $0x0,0x20271c(%rip)        # 604508 <is_checker>
  401dec:	74 14                	je     401e02 <illegalhandler+0x21>
  401dee:	bf a8 32 40 00       	mov    $0x4032a8,%edi
  401df3:	e8 c8 ee ff ff       	callq  400cc0 <puts@plt>
  401df8:	b8 00 00 00 00       	mov    $0x0,%eax
  401dfd:	e8 cc fb ff ff       	callq  4019ce <check_fail>
  401e02:	bf 28 34 40 00       	mov    $0x403428,%edi
  401e07:	e8 b4 ee ff ff       	callq  400cc0 <puts@plt>
  401e0c:	bf 7f 32 40 00       	mov    $0x40327f,%edi
  401e11:	e8 aa ee ff ff       	callq  400cc0 <puts@plt>
  401e16:	be 00 00 00 00       	mov    $0x0,%esi
  401e1b:	bf 00 00 00 00       	mov    $0x0,%edi
  401e20:	e8 30 fc ff ff       	callq  401a55 <notify_server>
  401e25:	bf 01 00 00 00       	mov    $0x1,%edi
  401e2a:	e8 01 f0 ff ff       	callq  400e30 <exit@plt>

0000000000401e2f <sigalrmhandler>:
  401e2f:	48 83 ec 08          	sub    $0x8,%rsp
  401e33:	83 3d ce 26 20 00 00 	cmpl   $0x0,0x2026ce(%rip)        # 604508 <is_checker>
  401e3a:	74 14                	je     401e50 <sigalrmhandler+0x21>
  401e3c:	bf bc 32 40 00       	mov    $0x4032bc,%edi
  401e41:	e8 7a ee ff ff       	callq  400cc0 <puts@plt>
  401e46:	b8 00 00 00 00       	mov    $0x0,%eax
  401e4b:	e8 7e fb ff ff       	callq  4019ce <check_fail>
  401e50:	ba 05 00 00 00       	mov    $0x5,%edx
  401e55:	be 58 34 40 00       	mov    $0x403458,%esi
  401e5a:	bf 01 00 00 00       	mov    $0x1,%edi
  401e5f:	b8 00 00 00 00       	mov    $0x0,%eax
  401e64:	e8 77 ef ff ff       	callq  400de0 <__printf_chk@plt>
  401e69:	be 00 00 00 00       	mov    $0x0,%esi
  401e6e:	bf 00 00 00 00       	mov    $0x0,%edi
  401e73:	e8 dd fb ff ff       	callq  401a55 <notify_server>
  401e78:	bf 01 00 00 00       	mov    $0x1,%edi
  401e7d:	e8 ae ef ff ff       	callq  400e30 <exit@plt>

0000000000401e82 <launch>:
  401e82:	55                   	push   %rbp
  401e83:	48 89 e5             	mov    %rsp,%rbp
  401e86:	48 83 ec 10          	sub    $0x10,%rsp
  401e8a:	48 89 fa             	mov    %rdi,%rdx
  401e8d:	64 48 8b 04 25 28 00 	mov    %fs:0x28,%rax
  401e94:	00 00 
  401e96:	48 89 45 f8          	mov    %rax,-0x8(%rbp)
  401e9a:	31 c0                	xor    %eax,%eax
  401e9c:	48 8d 47 1e          	lea    0x1e(%rdi),%rax
  401ea0:	48 83 e0 f0          	and    $0xfffffffffffffff0,%rax
  401ea4:	48 29 c4             	sub    %rax,%rsp
  401ea7:	48 8d 7c 24 0f       	lea    0xf(%rsp),%rdi
  401eac:	48 83 e7 f0          	and    $0xfffffffffffffff0,%rdi
  401eb0:	be f4 00 00 00       	mov    $0xf4,%esi
  401eb5:	e8 46 ee ff ff       	callq  400d00 <memset@plt>
  401eba:	48 8b 05 df 25 20 00 	mov    0x2025df(%rip),%rax        # 6044a0 <stdin@@GLIBC_2.2.5>
  401ec1:	48 39 05 28 26 20 00 	cmp    %rax,0x202628(%rip)        # 6044f0 <infile>
  401ec8:	74 38                	je     401f02 <launch+0x80>
  401eca:	c7 05 28 26 20 00 00 	movl   $0x0,0x202628(%rip)        # 6044fc <vlevel>
  401ed1:	00 00 00 
  401ed4:	b8 00 00 00 00       	mov    $0x0,%eax
  401ed9:	e8 5c fa ff ff       	callq  40193a <test>
  401ede:	83 3d 23 26 20 00 00 	cmpl   $0x0,0x202623(%rip)        # 604508 <is_checker>
  401ee5:	75 31                	jne    401f18 <launch+0x96>
  401ee7:	bf dc 32 40 00       	mov    $0x4032dc,%edi
  401eec:	e8 cf ed ff ff       	callq  400cc0 <puts@plt>
  401ef1:	48 8b 45 f8          	mov    -0x8(%rbp),%rax
  401ef5:	64 48 33 04 25 28 00 	xor    %fs:0x28,%rax
  401efc:	00 00 
  401efe:	75 2c                	jne    401f2c <launch+0xaa>
  401f00:	c9                   	leaveq 
  401f01:	c3                   	retq   
  401f02:	be c4 32 40 00       	mov    $0x4032c4,%esi
  401f07:	bf 01 00 00 00       	mov    $0x1,%edi
  401f0c:	b8 00 00 00 00       	mov    $0x0,%eax
  401f11:	e8 ca ee ff ff       	callq  400de0 <__printf_chk@plt>
  401f16:	eb b2                	jmp    401eca <launch+0x48>
  401f18:	bf d1 32 40 00       	mov    $0x4032d1,%edi
  401f1d:	e8 9e ed ff ff       	callq  400cc0 <puts@plt>
  401f22:	b8 00 00 00 00       	mov    $0x0,%eax
  401f27:	e8 a2 fa ff ff       	callq  4019ce <check_fail>
  401f2c:	e8 af ed ff ff       	callq  400ce0 <__stack_chk_fail@plt>

0000000000401f31 <stable_launch>:
  401f31:	53                   	push   %rbx
  401f32:	48 89 3d af 25 20 00 	mov    %rdi,0x2025af(%rip)        # 6044e8 <global_offset>
  401f39:	41 b9 00 00 00 00    	mov    $0x0,%r9d
  401f3f:	41 b8 00 00 00 00    	mov    $0x0,%r8d
  401f45:	b9 32 01 00 00       	mov    $0x132,%ecx
  401f4a:	ba 07 00 00 00       	mov    $0x7,%edx
  401f4f:	be 00 00 10 00       	mov    $0x100000,%esi
  401f54:	bf 00 60 58 55       	mov    $0x55586000,%edi
  401f59:	e8 92 ed ff ff       	callq  400cf0 <mmap@plt>
  401f5e:	48 89 c3             	mov    %rax,%rbx
  401f61:	48 3d 00 60 58 55    	cmp    $0x55586000,%rax
  401f67:	75 43                	jne    401fac <stable_launch+0x7b>
  401f69:	48 8d 90 f8 ff 0f 00 	lea    0xffff8(%rax),%rdx
  401f70:	48 89 15 b9 31 20 00 	mov    %rdx,0x2031b9(%rip)        # 605130 <stack_top>
  401f77:	48 89 e0             	mov    %rsp,%rax
  401f7a:	48 89 d4             	mov    %rdx,%rsp
  401f7d:	48 89 c2             	mov    %rax,%rdx
  401f80:	48 89 15 59 25 20 00 	mov    %rdx,0x202559(%rip)        # 6044e0 <global_save_stack>
  401f87:	48 8b 3d 5a 25 20 00 	mov    0x20255a(%rip),%rdi        # 6044e8 <global_offset>
  401f8e:	e8 ef fe ff ff       	callq  401e82 <launch>
  401f93:	48 8b 05 46 25 20 00 	mov    0x202546(%rip),%rax        # 6044e0 <global_save_stack>
  401f9a:	48 89 c4             	mov    %rax,%rsp
  401f9d:	be 00 00 10 00       	mov    $0x100000,%esi
  401fa2:	48 89 df             	mov    %rbx,%rdi
  401fa5:	e8 26 ee ff ff       	callq  400dd0 <munmap@plt>
  401faa:	5b                   	pop    %rbx
  401fab:	c3                   	retq   
  401fac:	be 00 00 10 00       	mov    $0x100000,%esi
  401fb1:	48 89 c7             	mov    %rax,%rdi
  401fb4:	e8 17 ee ff ff       	callq  400dd0 <munmap@plt>
  401fb9:	b9 00 60 58 55       	mov    $0x55586000,%ecx
  401fbe:	ba 90 34 40 00       	mov    $0x403490,%edx
  401fc3:	be 01 00 00 00       	mov    $0x1,%esi
  401fc8:	48 8b 3d f1 24 20 00 	mov    0x2024f1(%rip),%rdi        # 6044c0 <stderr@@GLIBC_2.2.5>
  401fcf:	b8 00 00 00 00       	mov    $0x0,%eax
  401fd4:	e8 77 ee ff ff       	callq  400e50 <__fprintf_chk@plt>
  401fd9:	bf 01 00 00 00       	mov    $0x1,%edi
  401fde:	e8 4d ee ff ff       	callq  400e30 <exit@plt>

0000000000401fe3 <rio_readinitb>:
  401fe3:	89 37                	mov    %esi,(%rdi)
  401fe5:	c7 47 04 00 00 00 00 	movl   $0x0,0x4(%rdi)
  401fec:	48 8d 47 10          	lea    0x10(%rdi),%rax
  401ff0:	48 89 47 08          	mov    %rax,0x8(%rdi)
  401ff4:	c3                   	retq   

0000000000401ff5 <sigalrm_handler>:
  401ff5:	48 83 ec 08          	sub    $0x8,%rsp
  401ff9:	b9 00 00 00 00       	mov    $0x0,%ecx
  401ffe:	ba d0 34 40 00       	mov    $0x4034d0,%edx
  402003:	be 01 00 00 00       	mov    $0x1,%esi
  402008:	48 8b 3d b1 24 20 00 	mov    0x2024b1(%rip),%rdi        # 6044c0 <stderr@@GLIBC_2.2.5>
  40200f:	b8 00 00 00 00       	mov    $0x0,%eax
  402014:	e8 37 ee ff ff       	callq  400e50 <__fprintf_chk@plt>
  402019:	bf 01 00 00 00       	mov    $0x1,%edi
  40201e:	e8 0d ee ff ff       	callq  400e30 <exit@plt>

0000000000402023 <rio_writen>:
  402023:	41 55                	push   %r13
  402025:	41 54                	push   %r12
  402027:	55                   	push   %rbp
  402028:	53                   	push   %rbx
  402029:	48 83 ec 08          	sub    $0x8,%rsp
  40202d:	41 89 fc             	mov    %edi,%r12d
  402030:	48 89 f5             	mov    %rsi,%rbp
  402033:	49 89 d5             	mov    %rdx,%r13
  402036:	48 89 d3             	mov    %rdx,%rbx
  402039:	eb 06                	jmp    402041 <rio_writen+0x1e>
  40203b:	48 29 c3             	sub    %rax,%rbx
  40203e:	48 01 c5             	add    %rax,%rbp
  402041:	48 85 db             	test   %rbx,%rbx
  402044:	74 24                	je     40206a <rio_writen+0x47>
  402046:	48 89 da             	mov    %rbx,%rdx
  402049:	48 89 ee             	mov    %rbp,%rsi
  40204c:	44 89 e7             	mov    %r12d,%edi
  40204f:	e8 7c ec ff ff       	callq  400cd0 <write@plt>
  402054:	48 85 c0             	test   %rax,%rax
  402057:	7f e2                	jg     40203b <rio_writen+0x18>
  402059:	e8 22 ec ff ff       	callq  400c80 <__errno_location@plt>
  40205e:	83 38 04             	cmpl   $0x4,(%rax)
  402061:	75 15                	jne    402078 <rio_writen+0x55>
  402063:	b8 00 00 00 00       	mov    $0x0,%eax
  402068:	eb d1                	jmp    40203b <rio_writen+0x18>
  40206a:	4c 89 e8             	mov    %r13,%rax
  40206d:	48 83 c4 08          	add    $0x8,%rsp
  402071:	5b                   	pop    %rbx
  402072:	5d                   	pop    %rbp
  402073:	41 5c                	pop    %r12
  402075:	41 5d                	pop    %r13
  402077:	c3                   	retq   
  402078:	48 c7 c0 ff ff ff ff 	mov    $0xffffffffffffffff,%rax
  40207f:	eb ec                	jmp    40206d <rio_writen+0x4a>

0000000000402081 <rio_read>:
  402081:	41 55                	push   %r13
  402083:	41 54                	push   %r12
  402085:	55                   	push   %rbp
  402086:	53                   	push   %rbx
  402087:	48 83 ec 08          	sub    $0x8,%rsp
  40208b:	48 89 fb             	mov    %rdi,%rbx
  40208e:	49 89 f5             	mov    %rsi,%r13
  402091:	49 89 d4             	mov    %rdx,%r12
  402094:	eb 0a                	jmp    4020a0 <rio_read+0x1f>
  402096:	e8 e5 eb ff ff       	callq  400c80 <__errno_location@plt>
  40209b:	83 38 04             	cmpl   $0x4,(%rax)
  40209e:	75 5c                	jne    4020fc <rio_read+0x7b>
  4020a0:	8b 6b 04             	mov    0x4(%rbx),%ebp
  4020a3:	85 ed                	test   %ebp,%ebp
  4020a5:	7f 24                	jg     4020cb <rio_read+0x4a>
  4020a7:	48 8d 6b 10          	lea    0x10(%rbx),%rbp
  4020ab:	8b 3b                	mov    (%rbx),%edi
  4020ad:	ba 00 20 00 00       	mov    $0x2000,%edx
  4020b2:	48 89 ee             	mov    %rbp,%rsi
  4020b5:	e8 76 ec ff ff       	callq  400d30 <read@plt>
  4020ba:	89 43 04             	mov    %eax,0x4(%rbx)
  4020bd:	85 c0                	test   %eax,%eax
  4020bf:	78 d5                	js     402096 <rio_read+0x15>
  4020c1:	85 c0                	test   %eax,%eax
  4020c3:	74 40                	je     402105 <rio_read+0x84>
  4020c5:	48 89 6b 08          	mov    %rbp,0x8(%rbx)
  4020c9:	eb d5                	jmp    4020a0 <rio_read+0x1f>
  4020cb:	89 e8                	mov    %ebp,%eax
  4020cd:	4c 39 e0             	cmp    %r12,%rax
  4020d0:	72 03                	jb     4020d5 <rio_read+0x54>
  4020d2:	44 89 e5             	mov    %r12d,%ebp
  4020d5:	4c 63 e5             	movslq %ebp,%r12
  4020d8:	48 8b 73 08          	mov    0x8(%rbx),%rsi
  4020dc:	4c 89 e2             	mov    %r12,%rdx
  4020df:	4c 89 ef             	mov    %r13,%rdi
  4020e2:	e8 99 ec ff ff       	callq  400d80 <memcpy@plt>
  4020e7:	4c 01 63 08          	add    %r12,0x8(%rbx)
  4020eb:	29 6b 04             	sub    %ebp,0x4(%rbx)
  4020ee:	4c 89 e0             	mov    %r12,%rax
  4020f1:	48 83 c4 08          	add    $0x8,%rsp
  4020f5:	5b                   	pop    %rbx
  4020f6:	5d                   	pop    %rbp
  4020f7:	41 5c                	pop    %r12
  4020f9:	41 5d                	pop    %r13
  4020fb:	c3                   	retq   
  4020fc:	48 c7 c0 ff ff ff ff 	mov    $0xffffffffffffffff,%rax
  402103:	eb ec                	jmp    4020f1 <rio_read+0x70>
  402105:	b8 00 00 00 00       	mov    $0x0,%eax
  40210a:	eb e5                	jmp    4020f1 <rio_read+0x70>

000000000040210c <rio_readlineb>:
  40210c:	41 55                	push   %r13
  40210e:	41 54                	push   %r12
  402110:	55                   	push   %rbp
  402111:	53                   	push   %rbx
  402112:	48 83 ec 18          	sub    $0x18,%rsp
  402116:	49 89 fd             	mov    %rdi,%r13
  402119:	48 89 f5             	mov    %rsi,%rbp
  40211c:	49 89 d4             	mov    %rdx,%r12
  40211f:	64 48 8b 04 25 28 00 	mov    %fs:0x28,%rax
  402126:	00 00 
  402128:	48 89 44 24 08       	mov    %rax,0x8(%rsp)
  40212d:	31 c0                	xor    %eax,%eax
  40212f:	bb 01 00 00 00       	mov    $0x1,%ebx
  402134:	4c 39 e3             	cmp    %r12,%rbx
  402137:	73 47                	jae    402180 <rio_readlineb+0x74>
  402139:	ba 01 00 00 00       	mov    $0x1,%edx
  40213e:	48 8d 74 24 07       	lea    0x7(%rsp),%rsi
  402143:	4c 89 ef             	mov    %r13,%rdi
  402146:	e8 36 ff ff ff       	callq  402081 <rio_read>
  40214b:	83 f8 01             	cmp    $0x1,%eax
  40214e:	75 1c                	jne    40216c <rio_readlineb+0x60>
  402150:	48 8d 45 01          	lea    0x1(%rbp),%rax
  402154:	0f b6 54 24 07       	movzbl 0x7(%rsp),%edx
  402159:	88 55 00             	mov    %dl,0x0(%rbp)
  40215c:	80 7c 24 07 0a       	cmpb   $0xa,0x7(%rsp)
  402161:	74 1a                	je     40217d <rio_readlineb+0x71>
  402163:	48 83 c3 01          	add    $0x1,%rbx
  402167:	48 89 c5             	mov    %rax,%rbp
  40216a:	eb c8                	jmp    402134 <rio_readlineb+0x28>
  40216c:	85 c0                	test   %eax,%eax
  40216e:	75 32                	jne    4021a2 <rio_readlineb+0x96>
  402170:	48 83 fb 01          	cmp    $0x1,%rbx
  402174:	75 0a                	jne    402180 <rio_readlineb+0x74>
  402176:	b8 00 00 00 00       	mov    $0x0,%eax
  40217b:	eb 0a                	jmp    402187 <rio_readlineb+0x7b>
  40217d:	48 89 c5             	mov    %rax,%rbp
  402180:	c6 45 00 00          	movb   $0x0,0x0(%rbp)
  402184:	48 89 d8             	mov    %rbx,%rax
  402187:	48 8b 4c 24 08       	mov    0x8(%rsp),%rcx
  40218c:	64 48 33 0c 25 28 00 	xor    %fs:0x28,%rcx
  402193:	00 00 
  402195:	75 14                	jne    4021ab <rio_readlineb+0x9f>
  402197:	48 83 c4 18          	add    $0x18,%rsp
  40219b:	5b                   	pop    %rbx
  40219c:	5d                   	pop    %rbp
  40219d:	41 5c                	pop    %r12
  40219f:	41 5d                	pop    %r13
  4021a1:	c3                   	retq   
  4021a2:	48 c7 c0 ff ff ff ff 	mov    $0xffffffffffffffff,%rax
  4021a9:	eb dc                	jmp    402187 <rio_readlineb+0x7b>
  4021ab:	e8 30 eb ff ff       	callq  400ce0 <__stack_chk_fail@plt>

00000000004021b0 <urlencode>:
  4021b0:	41 54                	push   %r12
  4021b2:	55                   	push   %rbp
  4021b3:	53                   	push   %rbx
  4021b4:	48 83 ec 10          	sub    $0x10,%rsp
  4021b8:	48 89 fb             	mov    %rdi,%rbx
  4021bb:	48 89 f5             	mov    %rsi,%rbp
  4021be:	64 48 8b 04 25 28 00 	mov    %fs:0x28,%rax
  4021c5:	00 00 
  4021c7:	48 89 44 24 08       	mov    %rax,0x8(%rsp)
  4021cc:	31 c0                	xor    %eax,%eax
  4021ce:	48 c7 c1 ff ff ff ff 	mov    $0xffffffffffffffff,%rcx
  4021d5:	f2 ae                	repnz scas %es:(%rdi),%al
  4021d7:	48 89 ce             	mov    %rcx,%rsi
  4021da:	48 f7 d6             	not    %rsi
  4021dd:	8d 46 ff             	lea    -0x1(%rsi),%eax
  4021e0:	eb 0f                	jmp    4021f1 <urlencode+0x41>
  4021e2:	44 88 45 00          	mov    %r8b,0x0(%rbp)
  4021e6:	48 8d 6d 01          	lea    0x1(%rbp),%rbp
  4021ea:	48 83 c3 01          	add    $0x1,%rbx
  4021ee:	44 89 e0             	mov    %r12d,%eax
  4021f1:	44 8d 60 ff          	lea    -0x1(%rax),%r12d
  4021f5:	85 c0                	test   %eax,%eax
  4021f7:	0f 84 a6 00 00 00    	je     4022a3 <urlencode+0xf3>
  4021fd:	44 0f b6 03          	movzbl (%rbx),%r8d
  402201:	41 80 f8 2a          	cmp    $0x2a,%r8b
  402205:	0f 94 c2             	sete   %dl
  402208:	41 80 f8 2d          	cmp    $0x2d,%r8b
  40220c:	0f 94 c0             	sete   %al
  40220f:	08 c2                	or     %al,%dl
  402211:	75 cf                	jne    4021e2 <urlencode+0x32>
  402213:	41 80 f8 2e          	cmp    $0x2e,%r8b
  402217:	74 c9                	je     4021e2 <urlencode+0x32>
  402219:	41 80 f8 5f          	cmp    $0x5f,%r8b
  40221d:	74 c3                	je     4021e2 <urlencode+0x32>
  40221f:	41 8d 40 d0          	lea    -0x30(%r8),%eax
  402223:	3c 09                	cmp    $0x9,%al
  402225:	76 bb                	jbe    4021e2 <urlencode+0x32>
  402227:	41 8d 40 bf          	lea    -0x41(%r8),%eax
  40222b:	3c 19                	cmp    $0x19,%al
  40222d:	76 b3                	jbe    4021e2 <urlencode+0x32>
  40222f:	41 8d 40 9f          	lea    -0x61(%r8),%eax
  402233:	3c 19                	cmp    $0x19,%al
  402235:	76 ab                	jbe    4021e2 <urlencode+0x32>
  402237:	41 80 f8 20          	cmp    $0x20,%r8b
  40223b:	74 54                	je     402291 <urlencode+0xe1>
  40223d:	41 8d 40 e0          	lea    -0x20(%r8),%eax
  402241:	3c 5f                	cmp    $0x5f,%al
  402243:	0f 96 c2             	setbe  %dl
  402246:	41 80 f8 09          	cmp    $0x9,%r8b
  40224a:	0f 94 c0             	sete   %al
  40224d:	08 c2                	or     %al,%dl
  40224f:	74 4d                	je     40229e <urlencode+0xee>
  402251:	45 0f b6 c0          	movzbl %r8b,%r8d
  402255:	b9 68 35 40 00       	mov    $0x403568,%ecx
  40225a:	ba 08 00 00 00       	mov    $0x8,%edx
  40225f:	be 01 00 00 00       	mov    $0x1,%esi
  402264:	48 89 e7             	mov    %rsp,%rdi
  402267:	b8 00 00 00 00       	mov    $0x0,%eax
  40226c:	e8 ef eb ff ff       	callq  400e60 <__sprintf_chk@plt>
  402271:	0f b6 04 24          	movzbl (%rsp),%eax
  402275:	88 45 00             	mov    %al,0x0(%rbp)
  402278:	0f b6 44 24 01       	movzbl 0x1(%rsp),%eax
  40227d:	88 45 01             	mov    %al,0x1(%rbp)
  402280:	0f b6 44 24 02       	movzbl 0x2(%rsp),%eax
  402285:	88 45 02             	mov    %al,0x2(%rbp)
  402288:	48 8d 6d 03          	lea    0x3(%rbp),%rbp
  40228c:	e9 59 ff ff ff       	jmpq   4021ea <urlencode+0x3a>
  402291:	c6 45 00 2b          	movb   $0x2b,0x0(%rbp)
  402295:	48 8d 6d 01          	lea    0x1(%rbp),%rbp
  402299:	e9 4c ff ff ff       	jmpq   4021ea <urlencode+0x3a>
  40229e:	b8 ff ff ff ff       	mov    $0xffffffff,%eax
  4022a3:	48 8b 74 24 08       	mov    0x8(%rsp),%rsi
  4022a8:	64 48 33 34 25 28 00 	xor    %fs:0x28,%rsi
  4022af:	00 00 
  4022b1:	75 09                	jne    4022bc <urlencode+0x10c>
  4022b3:	48 83 c4 10          	add    $0x10,%rsp
  4022b7:	5b                   	pop    %rbx
  4022b8:	5d                   	pop    %rbp
  4022b9:	41 5c                	pop    %r12
  4022bb:	c3                   	retq   
  4022bc:	e8 1f ea ff ff       	callq  400ce0 <__stack_chk_fail@plt>

00000000004022c1 <submitr>:
  4022c1:	41 57                	push   %r15
  4022c3:	41 56                	push   %r14
  4022c5:	41 55                	push   %r13
  4022c7:	41 54                	push   %r12
  4022c9:	55                   	push   %rbp
  4022ca:	53                   	push   %rbx
  4022cb:	48 81 ec 58 a0 00 00 	sub    $0xa058,%rsp
  4022d2:	49 89 fc             	mov    %rdi,%r12
  4022d5:	89 74 24 04          	mov    %esi,0x4(%rsp)
  4022d9:	49 89 d7             	mov    %rdx,%r15
  4022dc:	49 89 ce             	mov    %rcx,%r14
  4022df:	4c 89 44 24 08       	mov    %r8,0x8(%rsp)
  4022e4:	4d 89 cd             	mov    %r9,%r13
  4022e7:	48 8b ac 24 90 a0 00 	mov    0xa090(%rsp),%rbp
  4022ee:	00 
  4022ef:	64 48 8b 04 25 28 00 	mov    %fs:0x28,%rax
  4022f6:	00 00 
  4022f8:	48 89 84 24 48 a0 00 	mov    %rax,0xa048(%rsp)
  4022ff:	00 
  402300:	31 c0                	xor    %eax,%eax
  402302:	c7 44 24 1c 00 00 00 	movl   $0x0,0x1c(%rsp)
  402309:	00 
  40230a:	ba 00 00 00 00       	mov    $0x0,%edx
  40230f:	be 01 00 00 00       	mov    $0x1,%esi
  402314:	bf 02 00 00 00       	mov    $0x2,%edi
  402319:	e8 52 eb ff ff       	callq  400e70 <socket@plt>
  40231e:	85 c0                	test   %eax,%eax
  402320:	0f 88 9b 02 00 00    	js     4025c1 <submitr+0x300>
  402326:	89 c3                	mov    %eax,%ebx
  402328:	4c 89 e7             	mov    %r12,%rdi
  40232b:	e8 20 ea ff ff       	callq  400d50 <gethostbyname@plt>
  402330:	48 85 c0             	test   %rax,%rax
  402333:	0f 84 d4 02 00 00    	je     40260d <submitr+0x34c>
  402339:	48 c7 44 24 22 00 00 	movq   $0x0,0x22(%rsp)
  402340:	00 00 
  402342:	c7 44 24 2a 00 00 00 	movl   $0x0,0x2a(%rsp)
  402349:	00 
  40234a:	66 c7 44 24 2e 00 00 	movw   $0x0,0x2e(%rsp)
  402351:	66 c7 44 24 20 02 00 	movw   $0x2,0x20(%rsp)
  402358:	48 63 50 14          	movslq 0x14(%rax),%rdx
  40235c:	48 8b 40 18          	mov    0x18(%rax),%rax
  402360:	48 8b 30             	mov    (%rax),%rsi
  402363:	48 8d 7c 24 24       	lea    0x24(%rsp),%rdi
  402368:	b9 0c 00 00 00       	mov    $0xc,%ecx
  40236d:	e8 ee e9 ff ff       	callq  400d60 <__memmove_chk@plt>
  402372:	0f b7 44 24 04       	movzwl 0x4(%rsp),%eax
  402377:	66 c1 c8 08          	ror    $0x8,%ax
  40237b:	66 89 44 24 22       	mov    %ax,0x22(%rsp)
  402380:	ba 10 00 00 00       	mov    $0x10,%edx
  402385:	48 8d 74 24 20       	lea    0x20(%rsp),%rsi
  40238a:	89 df                	mov    %ebx,%edi
  40238c:	e8 af ea ff ff       	callq  400e40 <connect@plt>
  402391:	85 c0                	test   %eax,%eax
  402393:	0f 88 dc 02 00 00    	js     402675 <submitr+0x3b4>
  402399:	48 c7 c6 ff ff ff ff 	mov    $0xffffffffffffffff,%rsi
  4023a0:	b8 00 00 00 00       	mov    $0x0,%eax
  4023a5:	48 89 f1             	mov    %rsi,%rcx
  4023a8:	4c 89 ef             	mov    %r13,%rdi
  4023ab:	f2 ae                	repnz scas %es:(%rdi),%al
  4023ad:	48 89 ca             	mov    %rcx,%rdx
  4023b0:	48 f7 d2             	not    %rdx
  4023b3:	48 89 f1             	mov    %rsi,%rcx
  4023b6:	4c 89 ff             	mov    %r15,%rdi
  4023b9:	f2 ae                	repnz scas %es:(%rdi),%al
  4023bb:	48 f7 d1             	not    %rcx
  4023be:	49 89 c8             	mov    %rcx,%r8
  4023c1:	48 89 f1             	mov    %rsi,%rcx
  4023c4:	4c 89 f7             	mov    %r14,%rdi
  4023c7:	f2 ae                	repnz scas %es:(%rdi),%al
  4023c9:	48 f7 d1             	not    %rcx
  4023cc:	4d 8d 44 08 fe       	lea    -0x2(%r8,%rcx,1),%r8
  4023d1:	48 89 f1             	mov    %rsi,%rcx
  4023d4:	48 8b 7c 24 08       	mov    0x8(%rsp),%rdi
  4023d9:	f2 ae                	repnz scas %es:(%rdi),%al
  4023db:	48 89 c8             	mov    %rcx,%rax
  4023de:	48 f7 d0             	not    %rax
  4023e1:	49 8d 4c 00 ff       	lea    -0x1(%r8,%rax,1),%rcx
  4023e6:	48 8d 44 52 fd       	lea    -0x3(%rdx,%rdx,2),%rax
  4023eb:	48 8d 84 01 80 00 00 	lea    0x80(%rcx,%rax,1),%rax
  4023f2:	00 
  4023f3:	48 3d 00 20 00 00    	cmp    $0x2000,%rax
  4023f9:	0f 87 d0 02 00 00    	ja     4026cf <submitr+0x40e>
  4023ff:	48 8d b4 24 40 40 00 	lea    0x4040(%rsp),%rsi
  402406:	00 
  402407:	b9 00 04 00 00       	mov    $0x400,%ecx
  40240c:	b8 00 00 00 00       	mov    $0x0,%eax
  402411:	48 89 f7             	mov    %rsi,%rdi
  402414:	f3 48 ab             	rep stos %rax,%es:(%rdi)
  402417:	4c 89 ef             	mov    %r13,%rdi
  40241a:	e8 91 fd ff ff       	callq  4021b0 <urlencode>
  40241f:	85 c0                	test   %eax,%eax
  402421:	0f 88 1b 03 00 00    	js     402742 <submitr+0x481>
  402427:	4c 8d ac 24 40 20 00 	lea    0x2040(%rsp),%r13
  40242e:	00 
  40242f:	41 54                	push   %r12
  402431:	48 8d 84 24 48 40 00 	lea    0x4048(%rsp),%rax
  402438:	00 
  402439:	50                   	push   %rax
  40243a:	4d 89 f9             	mov    %r15,%r9
  40243d:	4d 89 f0             	mov    %r14,%r8
  402440:	b9 f8 34 40 00       	mov    $0x4034f8,%ecx
  402445:	ba 00 20 00 00       	mov    $0x2000,%edx
  40244a:	be 01 00 00 00       	mov    $0x1,%esi
  40244f:	4c 89 ef             	mov    %r13,%rdi
  402452:	b8 00 00 00 00       	mov    $0x0,%eax
  402457:	e8 04 ea ff ff       	callq  400e60 <__sprintf_chk@plt>
  40245c:	48 c7 c1 ff ff ff ff 	mov    $0xffffffffffffffff,%rcx
  402463:	b8 00 00 00 00       	mov    $0x0,%eax
  402468:	4c 89 ef             	mov    %r13,%rdi
  40246b:	f2 ae                	repnz scas %es:(%rdi),%al
  40246d:	48 89 ca             	mov    %rcx,%rdx
  402470:	48 f7 d2             	not    %rdx
  402473:	48 8d 52 ff          	lea    -0x1(%rdx),%rdx
  402477:	4c 89 ee             	mov    %r13,%rsi
  40247a:	89 df                	mov    %ebx,%edi
  40247c:	e8 a2 fb ff ff       	callq  402023 <rio_writen>
  402481:	48 83 c4 10          	add    $0x10,%rsp
  402485:	48 85 c0             	test   %rax,%rax
  402488:	0f 88 3f 03 00 00    	js     4027cd <submitr+0x50c>
  40248e:	89 de                	mov    %ebx,%esi
  402490:	48 8d 7c 24 30       	lea    0x30(%rsp),%rdi
  402495:	e8 49 fb ff ff       	callq  401fe3 <rio_readinitb>
  40249a:	ba 00 20 00 00       	mov    $0x2000,%edx
  40249f:	48 8d b4 24 40 20 00 	lea    0x2040(%rsp),%rsi
  4024a6:	00 
  4024a7:	48 8d 7c 24 30       	lea    0x30(%rsp),%rdi
  4024ac:	e8 5b fc ff ff       	callq  40210c <rio_readlineb>
  4024b1:	48 85 c0             	test   %rax,%rax
  4024b4:	0f 8e 82 03 00 00    	jle    40283c <submitr+0x57b>
  4024ba:	4c 8d 84 24 40 80 00 	lea    0x8040(%rsp),%r8
  4024c1:	00 
  4024c2:	48 8d 4c 24 1c       	lea    0x1c(%rsp),%rcx
  4024c7:	48 8d 94 24 40 60 00 	lea    0x6040(%rsp),%rdx
  4024ce:	00 
  4024cf:	be 6f 35 40 00       	mov    $0x40356f,%esi
  4024d4:	48 8d bc 24 40 20 00 	lea    0x2040(%rsp),%rdi
  4024db:	00 
  4024dc:	b8 00 00 00 00       	mov    $0x0,%eax
  4024e1:	e8 da e8 ff ff       	callq  400dc0 <__isoc99_sscanf@plt>
  4024e6:	48 8d b4 24 40 20 00 	lea    0x2040(%rsp),%rsi
  4024ed:	00 
  4024ee:	bf 86 35 40 00       	mov    $0x403586,%edi
  4024f3:	b9 03 00 00 00       	mov    $0x3,%ecx
  4024f8:	f3 a6                	repz cmpsb %es:(%rdi),%ds:(%rsi)
  4024fa:	0f 97 c0             	seta   %al
  4024fd:	1c 00                	sbb    $0x0,%al
  4024ff:	84 c0                	test   %al,%al
  402501:	0f 84 b3 03 00 00    	je     4028ba <submitr+0x5f9>
  402507:	ba 00 20 00 00       	mov    $0x2000,%edx
  40250c:	48 8d b4 24 40 20 00 	lea    0x2040(%rsp),%rsi
  402513:	00 
  402514:	48 8d 7c 24 30       	lea    0x30(%rsp),%rdi
  402519:	e8 ee fb ff ff       	callq  40210c <rio_readlineb>
  40251e:	48 85 c0             	test   %rax,%rax
  402521:	7f c3                	jg     4024e6 <submitr+0x225>
  402523:	48 b8 45 72 72 6f 72 	movabs $0x43203a726f727245,%rax
  40252a:	3a 20 43 
  40252d:	48 ba 6c 69 65 6e 74 	movabs $0x6e7520746e65696c,%rdx
  402534:	20 75 6e 
  402537:	48 89 45 00          	mov    %rax,0x0(%rbp)
  40253b:	48 89 55 08          	mov    %rdx,0x8(%rbp)
  40253f:	48 b8 61 62 6c 65 20 	movabs $0x206f7420656c6261,%rax
  402546:	74 6f 20 
  402549:	48 ba 72 65 61 64 20 	movabs $0x6165682064616572,%rdx
  402550:	68 65 61 
  402553:	48 89 45 10          	mov    %rax,0x10(%rbp)
  402557:	48 89 55 18          	mov    %rdx,0x18(%rbp)
  40255b:	48 b8 64 65 72 73 20 	movabs $0x6f72662073726564,%rax
  402562:	66 72 6f 
  402565:	48 ba 6d 20 74 68 65 	movabs $0x657220656874206d,%rdx
  40256c:	20 72 65 
  40256f:	48 89 45 20          	mov    %rax,0x20(%rbp)
  402573:	48 89 55 28          	mov    %rdx,0x28(%rbp)
  402577:	48 b8 73 75 6c 74 20 	movabs $0x72657320746c7573,%rax
  40257e:	73 65 72 
  402581:	48 89 45 30          	mov    %rax,0x30(%rbp)
  402585:	c7 45 38 76 65 72 00 	movl   $0x726576,0x38(%rbp)
  40258c:	89 df                	mov    %ebx,%edi
  40258e:	e8 8d e7 ff ff       	callq  400d20 <close@plt>
  402593:	b8 ff ff ff ff       	mov    $0xffffffff,%eax
  402598:	48 8b 9c 24 48 a0 00 	mov    0xa048(%rsp),%rbx
  40259f:	00 
  4025a0:	64 48 33 1c 25 28 00 	xor    %fs:0x28,%rbx
  4025a7:	00 00 
  4025a9:	0f 85 76 04 00 00    	jne    402a25 <submitr+0x764>
  4025af:	48 81 c4 58 a0 00 00 	add    $0xa058,%rsp
  4025b6:	5b                   	pop    %rbx
  4025b7:	5d                   	pop    %rbp
  4025b8:	41 5c                	pop    %r12
  4025ba:	41 5d                	pop    %r13
  4025bc:	41 5e                	pop    %r14
  4025be:	41 5f                	pop    %r15
  4025c0:	c3                   	retq   
  4025c1:	48 b8 45 72 72 6f 72 	movabs $0x43203a726f727245,%rax
  4025c8:	3a 20 43 
  4025cb:	48 ba 6c 69 65 6e 74 	movabs $0x6e7520746e65696c,%rdx
  4025d2:	20 75 6e 
  4025d5:	48 89 45 00          	mov    %rax,0x0(%rbp)
  4025d9:	48 89 55 08          	mov    %rdx,0x8(%rbp)
  4025dd:	48 b8 61 62 6c 65 20 	movabs $0x206f7420656c6261,%rax
  4025e4:	74 6f 20 
  4025e7:	48 ba 63 72 65 61 74 	movabs $0x7320657461657263,%rdx
  4025ee:	65 20 73 
  4025f1:	48 89 45 10          	mov    %rax,0x10(%rbp)
  4025f5:	48 89 55 18          	mov    %rdx,0x18(%rbp)
  4025f9:	c7 45 20 6f 63 6b 65 	movl   $0x656b636f,0x20(%rbp)
  402600:	66 c7 45 24 74 00    	movw   $0x74,0x24(%rbp)
  402606:	b8 ff ff ff ff       	mov    $0xffffffff,%eax
  40260b:	eb 8b                	jmp    402598 <submitr+0x2d7>
  40260d:	48 b8 45 72 72 6f 72 	movabs $0x44203a726f727245,%rax
  402614:	3a 20 44 
  402617:	48 ba 4e 53 20 69 73 	movabs $0x6e7520736920534e,%rdx
  40261e:	20 75 6e 
  402621:	48 89 45 00          	mov    %rax,0x0(%rbp)
  402625:	48 89 55 08          	mov    %rdx,0x8(%rbp)
  402629:	48 b8 61 62 6c 65 20 	movabs $0x206f7420656c6261,%rax
  402630:	74 6f 20 
  402633:	48 ba 72 65 73 6f 6c 	movabs $0x2065766c6f736572,%rdx
  40263a:	76 65 20 
  40263d:	48 89 45 10          	mov    %rax,0x10(%rbp)
  402641:	48 89 55 18          	mov    %rdx,0x18(%rbp)
  402645:	48 b8 73 65 72 76 65 	movabs $0x6120726576726573,%rax
  40264c:	72 20 61 
  40264f:	48 89 45 20          	mov    %rax,0x20(%rbp)
  402653:	c7 45 28 64 64 72 65 	movl   $0x65726464,0x28(%rbp)
  40265a:	66 c7 45 2c 73 73    	movw   $0x7373,0x2c(%rbp)
  402660:	c6 45 2e 00          	movb   $0x0,0x2e(%rbp)
  402664:	89 df                	mov    %ebx,%edi
  402666:	e8 b5 e6 ff ff       	callq  400d20 <close@plt>
  40266b:	b8 ff ff ff ff       	mov    $0xffffffff,%eax
  402670:	e9 23 ff ff ff       	jmpq   402598 <submitr+0x2d7>
  402675:	48 b8 45 72 72 6f 72 	movabs $0x55203a726f727245,%rax
  40267c:	3a 20 55 
  40267f:	48 ba 6e 61 62 6c 65 	movabs $0x6f7420656c62616e,%rdx
  402686:	20 74 6f 
  402689:	48 89 45 00          	mov    %rax,0x0(%rbp)
  40268d:	48 89 55 08          	mov    %rdx,0x8(%rbp)
  402691:	48 b8 20 63 6f 6e 6e 	movabs $0x7463656e6e6f6320,%rax
  402698:	65 63 74 
  40269b:	48 ba 20 74 6f 20 74 	movabs $0x20656874206f7420,%rdx
  4026a2:	68 65 20 
  4026a5:	48 89 45 10          	mov    %rax,0x10(%rbp)
  4026a9:	48 89 55 18          	mov    %rdx,0x18(%rbp)
  4026ad:	c7 45 20 73 65 72 76 	movl   $0x76726573,0x20(%rbp)
  4026b4:	66 c7 45 24 65 72    	movw   $0x7265,0x24(%rbp)
  4026ba:	c6 45 26 00          	movb   $0x0,0x26(%rbp)
  4026be:	89 df                	mov    %ebx,%edi
  4026c0:	e8 5b e6 ff ff       	callq  400d20 <close@plt>
  4026c5:	b8 ff ff ff ff       	mov    $0xffffffff,%eax
  4026ca:	e9 c9 fe ff ff       	jmpq   402598 <submitr+0x2d7>
  4026cf:	48 b8 45 72 72 6f 72 	movabs $0x52203a726f727245,%rax
  4026d6:	3a 20 52 
  4026d9:	48 ba 65 73 75 6c 74 	movabs $0x747320746c757365,%rdx
  4026e0:	20 73 74 
  4026e3:	48 89 45 00          	mov    %rax,0x0(%rbp)
  4026e7:	48 89 55 08          	mov    %rdx,0x8(%rbp)
  4026eb:	48 b8 72 69 6e 67 20 	movabs $0x6f6f7420676e6972,%rax
  4026f2:	74 6f 6f 
  4026f5:	48 ba 20 6c 61 72 67 	movabs $0x202e656772616c20,%rdx
  4026fc:	65 2e 20 
  4026ff:	48 89 45 10          	mov    %rax,0x10(%rbp)
  402703:	48 89 55 18          	mov    %rdx,0x18(%rbp)
  402707:	48 b8 49 6e 63 72 65 	movabs $0x6573616572636e49,%rax
  40270e:	61 73 65 
  402711:	48 ba 20 53 55 42 4d 	movabs $0x5254494d42555320,%rdx
  402718:	49 54 52 
  40271b:	48 89 45 20          	mov    %rax,0x20(%rbp)
  40271f:	48 89 55 28          	mov    %rdx,0x28(%rbp)
  402723:	48 b8 5f 4d 41 58 42 	movabs $0x46554258414d5f,%rax
  40272a:	55 46 00 
  40272d:	48 89 45 30          	mov    %rax,0x30(%rbp)
  402731:	89 df                	mov    %ebx,%edi
  402733:	e8 e8 e5 ff ff       	callq  400d20 <close@plt>
  402738:	b8 ff ff ff ff       	mov    $0xffffffff,%eax
  40273d:	e9 56 fe ff ff       	jmpq   402598 <submitr+0x2d7>
  402742:	48 b8 45 72 72 6f 72 	movabs $0x52203a726f727245,%rax
  402749:	3a 20 52 
  40274c:	48 ba 65 73 75 6c 74 	movabs $0x747320746c757365,%rdx
  402753:	20 73 74 
  402756:	48 89 45 00          	mov    %rax,0x0(%rbp)
  40275a:	48 89 55 08          	mov    %rdx,0x8(%rbp)
  40275e:	48 b8 72 69 6e 67 20 	movabs $0x6e6f6320676e6972,%rax
  402765:	63 6f 6e 
  402768:	48 ba 74 61 69 6e 73 	movabs $0x6e6120736e696174,%rdx
  40276f:	20 61 6e 
  402772:	48 89 45 10          	mov    %rax,0x10(%rbp)
  402776:	48 89 55 18          	mov    %rdx,0x18(%rbp)
  40277a:	48 b8 20 69 6c 6c 65 	movabs $0x6c6167656c6c6920,%rax
  402781:	67 61 6c 
  402784:	48 ba 20 6f 72 20 75 	movabs $0x72706e7520726f20,%rdx
  40278b:	6e 70 72 
  40278e:	48 89 45 20          	mov    %rax,0x20(%rbp)
  402792:	48 89 55 28          	mov    %rdx,0x28(%rbp)
  402796:	48 b8 69 6e 74 61 62 	movabs $0x20656c6261746e69,%rax
  40279d:	6c 65 20 
  4027a0:	48 ba 63 68 61 72 61 	movabs $0x6574636172616863,%rdx
  4027a7:	63 74 65 
  4027aa:	48 89 45 30          	mov    %rax,0x30(%rbp)
  4027ae:	48 89 55 38          	mov    %rdx,0x38(%rbp)
  4027b2:	66 c7 45 40 72 2e    	movw   $0x2e72,0x40(%rbp)
  4027b8:	c6 45 42 00          	movb   $0x0,0x42(%rbp)
  4027bc:	89 df                	mov    %ebx,%edi
  4027be:	e8 5d e5 ff ff       	callq  400d20 <close@plt>
  4027c3:	b8 ff ff ff ff       	mov    $0xffffffff,%eax
  4027c8:	e9 cb fd ff ff       	jmpq   402598 <submitr+0x2d7>
  4027cd:	48 b8 45 72 72 6f 72 	movabs $0x43203a726f727245,%rax
  4027d4:	3a 20 43 
  4027d7:	48 ba 6c 69 65 6e 74 	movabs $0x6e7520746e65696c,%rdx
  4027de:	20 75 6e 
  4027e1:	48 89 45 00          	mov    %rax,0x0(%rbp)
  4027e5:	48 89 55 08          	mov    %rdx,0x8(%rbp)
  4027e9:	48 b8 61 62 6c 65 20 	movabs $0x206f7420656c6261,%rax
  4027f0:	74 6f 20 
  4027f3:	48 ba 77 72 69 74 65 	movabs $0x6f74206574697277,%rdx
  4027fa:	20 74 6f 
  4027fd:	48 89 45 10          	mov    %rax,0x10(%rbp)
  402801:	48 89 55 18          	mov    %rdx,0x18(%rbp)
  402805:	48 b8 20 74 68 65 20 	movabs $0x7365722065687420,%rax
  40280c:	72 65 73 
  40280f:	48 ba 75 6c 74 20 73 	movabs $0x7672657320746c75,%rdx
  402816:	65 72 76 
  402819:	48 89 45 20          	mov    %rax,0x20(%rbp)
  40281d:	48 89 55 28          	mov    %rdx,0x28(%rbp)
  402821:	66 c7 45 30 65 72    	movw   $0x7265,0x30(%rbp)
  402827:	c6 45 32 00          	movb   $0x0,0x32(%rbp)
  40282b:	89 df                	mov    %ebx,%edi
  40282d:	e8 ee e4 ff ff       	callq  400d20 <close@plt>
  402832:	b8 ff ff ff ff       	mov    $0xffffffff,%eax
  402837:	e9 5c fd ff ff       	jmpq   402598 <submitr+0x2d7>
  40283c:	48 b8 45 72 72 6f 72 	movabs $0x43203a726f727245,%rax
  402843:	3a 20 43 
  402846:	48 ba 6c 69 65 6e 74 	movabs $0x6e7520746e65696c,%rdx
  40284d:	20 75 6e 
  402850:	48 89 45 00          	mov    %rax,0x0(%rbp)
  402854:	48 89 55 08          	mov    %rdx,0x8(%rbp)
  402858:	48 b8 61 62 6c 65 20 	movabs $0x206f7420656c6261,%rax
  40285f:	74 6f 20 
  402862:	48 ba 72 65 61 64 20 	movabs $0x7269662064616572,%rdx
  402869:	66 69 72 
  40286c:	48 89 45 10          	mov    %rax,0x10(%rbp)
  402870:	48 89 55 18          	mov    %rdx,0x18(%rbp)
  402874:	48 b8 73 74 20 68 65 	movabs $0x6564616568207473,%rax
  40287b:	61 64 65 
  40287e:	48 ba 72 20 66 72 6f 	movabs $0x72206d6f72662072,%rdx
  402885:	6d 20 72 
  402888:	48 89 45 20          	mov    %rax,0x20(%rbp)
  40288c:	48 89 55 28          	mov    %rdx,0x28(%rbp)
  402890:	48 b8 65 73 75 6c 74 	movabs $0x657320746c757365,%rax
  402897:	20 73 65 
  40289a:	48 89 45 30          	mov    %rax,0x30(%rbp)
  40289e:	c7 45 38 72 76 65 72 	movl   $0x72657672,0x38(%rbp)
  4028a5:	c6 45 3c 00          	movb   $0x0,0x3c(%rbp)
  4028a9:	89 df                	mov    %ebx,%edi
  4028ab:	e8 70 e4 ff ff       	callq  400d20 <close@plt>
  4028b0:	b8 ff ff ff ff       	mov    $0xffffffff,%eax
  4028b5:	e9 de fc ff ff       	jmpq   402598 <submitr+0x2d7>
  4028ba:	ba 00 20 00 00       	mov    $0x2000,%edx
  4028bf:	48 8d b4 24 40 20 00 	lea    0x2040(%rsp),%rsi
  4028c6:	00 
  4028c7:	48 8d 7c 24 30       	lea    0x30(%rsp),%rdi
  4028cc:	e8 3b f8 ff ff       	callq  40210c <rio_readlineb>
  4028d1:	48 85 c0             	test   %rax,%rax
  4028d4:	0f 8e 90 00 00 00    	jle    40296a <submitr+0x6a9>
  4028da:	44 8b 44 24 1c       	mov    0x1c(%rsp),%r8d
  4028df:	41 81 f8 c8 00 00 00 	cmp    $0xc8,%r8d
  4028e6:	0f 85 02 01 00 00    	jne    4029ee <submitr+0x72d>
  4028ec:	48 8d b4 24 40 20 00 	lea    0x2040(%rsp),%rsi
  4028f3:	00 
  4028f4:	48 89 ef             	mov    %rbp,%rdi
  4028f7:	e8 b4 e3 ff ff       	callq  400cb0 <strcpy@plt>
  4028fc:	89 df                	mov    %ebx,%edi
  4028fe:	e8 1d e4 ff ff       	callq  400d20 <close@plt>
  402903:	bf 80 35 40 00       	mov    $0x403580,%edi
  402908:	b9 04 00 00 00       	mov    $0x4,%ecx
  40290d:	48 89 ee             	mov    %rbp,%rsi
  402910:	f3 a6                	repz cmpsb %es:(%rdi),%ds:(%rsi)
  402912:	0f 97 c0             	seta   %al
  402915:	1c 00                	sbb    $0x0,%al
  402917:	0f be c0             	movsbl %al,%eax
  40291a:	85 c0                	test   %eax,%eax
  40291c:	0f 84 76 fc ff ff    	je     402598 <submitr+0x2d7>
  402922:	bf 84 35 40 00       	mov    $0x403584,%edi
  402927:	b9 05 00 00 00       	mov    $0x5,%ecx
  40292c:	48 89 ee             	mov    %rbp,%rsi
  40292f:	f3 a6                	repz cmpsb %es:(%rdi),%ds:(%rsi)
  402931:	0f 97 c0             	seta   %al
  402934:	1c 00                	sbb    $0x0,%al
  402936:	0f be c0             	movsbl %al,%eax
  402939:	85 c0                	test   %eax,%eax
  40293b:	0f 84 57 fc ff ff    	je     402598 <submitr+0x2d7>
  402941:	bf 89 35 40 00       	mov    $0x403589,%edi
  402946:	b9 03 00 00 00       	mov    $0x3,%ecx
  40294b:	48 89 ee             	mov    %rbp,%rsi
  40294e:	f3 a6                	repz cmpsb %es:(%rdi),%ds:(%rsi)
  402950:	0f 97 c0             	seta   %al
  402953:	1c 00                	sbb    $0x0,%al
  402955:	0f be c0             	movsbl %al,%eax
  402958:	85 c0                	test   %eax,%eax
  40295a:	0f 84 38 fc ff ff    	je     402598 <submitr+0x2d7>
  402960:	b8 ff ff ff ff       	mov    $0xffffffff,%eax
  402965:	e9 2e fc ff ff       	jmpq   402598 <submitr+0x2d7>
  40296a:	48 b8 45 72 72 6f 72 	movabs $0x43203a726f727245,%rax
  402971:	3a 20 43 
  402974:	48 ba 6c 69 65 6e 74 	movabs $0x6e7520746e65696c,%rdx
  40297b:	20 75 6e 
  40297e:	48 89 45 00          	mov    %rax,0x0(%rbp)
  402982:	48 89 55 08          	mov    %rdx,0x8(%rbp)
  402986:	48 b8 61 62 6c 65 20 	movabs $0x206f7420656c6261,%rax
  40298d:	74 6f 20 
  402990:	48 ba 72 65 61 64 20 	movabs $0x6174732064616572,%rdx
  402997:	73 74 61 
  40299a:	48 89 45 10          	mov    %rax,0x10(%rbp)
  40299e:	48 89 55 18          	mov    %rdx,0x18(%rbp)
  4029a2:	48 b8 74 75 73 20 6d 	movabs $0x7373656d20737574,%rax
  4029a9:	65 73 73 
  4029ac:	48 ba 61 67 65 20 66 	movabs $0x6d6f726620656761,%rdx
  4029b3:	72 6f 6d 
  4029b6:	48 89 45 20          	mov    %rax,0x20(%rbp)
  4029ba:	48 89 55 28          	mov    %rdx,0x28(%rbp)
  4029be:	48 b8 20 72 65 73 75 	movabs $0x20746c7573657220,%rax
  4029c5:	6c 74 20 
  4029c8:	48 89 45 30          	mov    %rax,0x30(%rbp)
  4029cc:	c7 45 38 73 65 72 76 	movl   $0x76726573,0x38(%rbp)
  4029d3:	66 c7 45 3c 65 72    	movw   $0x7265,0x3c(%rbp)
  4029d9:	c6 45 3e 00          	movb   $0x0,0x3e(%rbp)
  4029dd:	89 df                	mov    %ebx,%edi
  4029df:	e8 3c e3 ff ff       	callq  400d20 <close@plt>
  4029e4:	b8 ff ff ff ff       	mov    $0xffffffff,%eax
  4029e9:	e9 aa fb ff ff       	jmpq   402598 <submitr+0x2d7>
  4029ee:	4c 8d 8c 24 40 80 00 	lea    0x8040(%rsp),%r9
  4029f5:	00 
  4029f6:	b9 38 35 40 00       	mov    $0x403538,%ecx
  4029fb:	48 c7 c2 ff ff ff ff 	mov    $0xffffffffffffffff,%rdx
  402a02:	be 01 00 00 00       	mov    $0x1,%esi
  402a07:	48 89 ef             	mov    %rbp,%rdi
  402a0a:	b8 00 00 00 00       	mov    $0x0,%eax
  402a0f:	e8 4c e4 ff ff       	callq  400e60 <__sprintf_chk@plt>
  402a14:	89 df                	mov    %ebx,%edi
  402a16:	e8 05 e3 ff ff       	callq  400d20 <close@plt>
  402a1b:	b8 ff ff ff ff       	mov    $0xffffffff,%eax
  402a20:	e9 73 fb ff ff       	jmpq   402598 <submitr+0x2d7>
  402a25:	e8 b6 e2 ff ff       	callq  400ce0 <__stack_chk_fail@plt>

0000000000402a2a <init_timeout>:
  402a2a:	85 ff                	test   %edi,%edi
  402a2c:	74 26                	je     402a54 <init_timeout+0x2a>
  402a2e:	53                   	push   %rbx
  402a2f:	89 fb                	mov    %edi,%ebx
  402a31:	85 ff                	test   %edi,%edi
  402a33:	78 18                	js     402a4d <init_timeout+0x23>
  402a35:	be f5 1f 40 00       	mov    $0x401ff5,%esi
  402a3a:	bf 0e 00 00 00       	mov    $0xe,%edi
  402a3f:	e8 fc e2 ff ff       	callq  400d40 <signal@plt>
  402a44:	89 df                	mov    %ebx,%edi
  402a46:	e8 c5 e2 ff ff       	callq  400d10 <alarm@plt>
  402a4b:	5b                   	pop    %rbx
  402a4c:	c3                   	retq   
  402a4d:	bb 00 00 00 00       	mov    $0x0,%ebx
  402a52:	eb e1                	jmp    402a35 <init_timeout+0xb>
  402a54:	f3 c3                	repz retq 

0000000000402a56 <init_driver>:
  402a56:	55                   	push   %rbp
  402a57:	53                   	push   %rbx
  402a58:	48 83 ec 28          	sub    $0x28,%rsp
  402a5c:	48 89 fd             	mov    %rdi,%rbp
  402a5f:	64 48 8b 04 25 28 00 	mov    %fs:0x28,%rax
  402a66:	00 00 
  402a68:	48 89 44 24 18       	mov    %rax,0x18(%rsp)
  402a6d:	31 c0                	xor    %eax,%eax
  402a6f:	be 01 00 00 00       	mov    $0x1,%esi
  402a74:	bf 0d 00 00 00       	mov    $0xd,%edi
  402a79:	e8 c2 e2 ff ff       	callq  400d40 <signal@plt>
  402a7e:	be 01 00 00 00       	mov    $0x1,%esi
  402a83:	bf 1d 00 00 00       	mov    $0x1d,%edi
  402a88:	e8 b3 e2 ff ff       	callq  400d40 <signal@plt>
  402a8d:	be 01 00 00 00       	mov    $0x1,%esi
  402a92:	bf 1d 00 00 00       	mov    $0x1d,%edi
  402a97:	e8 a4 e2 ff ff       	callq  400d40 <signal@plt>
  402a9c:	ba 00 00 00 00       	mov    $0x0,%edx
  402aa1:	be 01 00 00 00       	mov    $0x1,%esi
  402aa6:	bf 02 00 00 00       	mov    $0x2,%edi
  402aab:	e8 c0 e3 ff ff       	callq  400e70 <socket@plt>
  402ab0:	85 c0                	test   %eax,%eax
  402ab2:	0f 88 9c 00 00 00    	js     402b54 <init_driver+0xfe>
  402ab8:	89 c3                	mov    %eax,%ebx
  402aba:	bf 8c 35 40 00       	mov    $0x40358c,%edi
  402abf:	e8 8c e2 ff ff       	callq  400d50 <gethostbyname@plt>
  402ac4:	48 85 c0             	test   %rax,%rax
  402ac7:	0f 84 d3 00 00 00    	je     402ba0 <init_driver+0x14a>
  402acd:	48 c7 44 24 02 00 00 	movq   $0x0,0x2(%rsp)
  402ad4:	00 00 
  402ad6:	c7 44 24 0a 00 00 00 	movl   $0x0,0xa(%rsp)
  402add:	00 
  402ade:	66 c7 44 24 0e 00 00 	movw   $0x0,0xe(%rsp)
  402ae5:	66 c7 04 24 02 00    	movw   $0x2,(%rsp)
  402aeb:	48 63 50 14          	movslq 0x14(%rax),%rdx
  402aef:	48 8b 40 18          	mov    0x18(%rax),%rax
  402af3:	48 8b 30             	mov    (%rax),%rsi
  402af6:	48 8d 7c 24 04       	lea    0x4(%rsp),%rdi
  402afb:	b9 0c 00 00 00       	mov    $0xc,%ecx
  402b00:	e8 5b e2 ff ff       	callq  400d60 <__memmove_chk@plt>
  402b05:	66 c7 44 24 02 3b 72 	movw   $0x723b,0x2(%rsp)
  402b0c:	ba 10 00 00 00       	mov    $0x10,%edx
  402b11:	48 89 e6             	mov    %rsp,%rsi
  402b14:	89 df                	mov    %ebx,%edi
  402b16:	e8 25 e3 ff ff       	callq  400e40 <connect@plt>
  402b1b:	85 c0                	test   %eax,%eax
  402b1d:	0f 88 e5 00 00 00    	js     402c08 <init_driver+0x1b2>
  402b23:	89 df                	mov    %ebx,%edi
  402b25:	e8 f6 e1 ff ff       	callq  400d20 <close@plt>
  402b2a:	66 c7 45 00 4f 4b    	movw   $0x4b4f,0x0(%rbp)
  402b30:	c6 45 02 00          	movb   $0x0,0x2(%rbp)
  402b34:	b8 00 00 00 00       	mov    $0x0,%eax
  402b39:	48 8b 4c 24 18       	mov    0x18(%rsp),%rcx
  402b3e:	64 48 33 0c 25 28 00 	xor    %fs:0x28,%rcx
  402b45:	00 00 
  402b47:	0f 85 0e 01 00 00    	jne    402c5b <init_driver+0x205>
  402b4d:	48 83 c4 28          	add    $0x28,%rsp
  402b51:	5b                   	pop    %rbx
  402b52:	5d                   	pop    %rbp
  402b53:	c3                   	retq   
  402b54:	48 b8 45 72 72 6f 72 	movabs $0x43203a726f727245,%rax
  402b5b:	3a 20 43 
  402b5e:	48 ba 6c 69 65 6e 74 	movabs $0x6e7520746e65696c,%rdx
  402b65:	20 75 6e 
  402b68:	48 89 45 00          	mov    %rax,0x0(%rbp)
  402b6c:	48 89 55 08          	mov    %rdx,0x8(%rbp)
  402b70:	48 b8 61 62 6c 65 20 	movabs $0x206f7420656c6261,%rax
  402b77:	74 6f 20 
  402b7a:	48 ba 63 72 65 61 74 	movabs $0x7320657461657263,%rdx
  402b81:	65 20 73 
  402b84:	48 89 45 10          	mov    %rax,0x10(%rbp)
  402b88:	48 89 55 18          	mov    %rdx,0x18(%rbp)
  402b8c:	c7 45 20 6f 63 6b 65 	movl   $0x656b636f,0x20(%rbp)
  402b93:	66 c7 45 24 74 00    	movw   $0x74,0x24(%rbp)
  402b99:	b8 ff ff ff ff       	mov    $0xffffffff,%eax
  402b9e:	eb 99                	jmp    402b39 <init_driver+0xe3>
  402ba0:	48 b8 45 72 72 6f 72 	movabs $0x44203a726f727245,%rax
  402ba7:	3a 20 44 
  402baa:	48 ba 4e 53 20 69 73 	movabs $0x6e7520736920534e,%rdx
  402bb1:	20 75 6e 
  402bb4:	48 89 45 00          	mov    %rax,0x0(%rbp)
  402bb8:	48 89 55 08          	mov    %rdx,0x8(%rbp)
  402bbc:	48 b8 61 62 6c 65 20 	movabs $0x206f7420656c6261,%rax
  402bc3:	74 6f 20 
  402bc6:	48 ba 72 65 73 6f 6c 	movabs $0x2065766c6f736572,%rdx
  402bcd:	76 65 20 
  402bd0:	48 89 45 10          	mov    %rax,0x10(%rbp)
  402bd4:	48 89 55 18          	mov    %rdx,0x18(%rbp)
  402bd8:	48 b8 73 65 72 76 65 	movabs $0x6120726576726573,%rax
  402bdf:	72 20 61 
  402be2:	48 89 45 20          	mov    %rax,0x20(%rbp)
  402be6:	c7 45 28 64 64 72 65 	movl   $0x65726464,0x28(%rbp)
  402bed:	66 c7 45 2c 73 73    	movw   $0x7373,0x2c(%rbp)
  402bf3:	c6 45 2e 00          	movb   $0x0,0x2e(%rbp)
  402bf7:	89 df                	mov    %ebx,%edi
  402bf9:	e8 22 e1 ff ff       	callq  400d20 <close@plt>
  402bfe:	b8 ff ff ff ff       	mov    $0xffffffff,%eax
  402c03:	e9 31 ff ff ff       	jmpq   402b39 <init_driver+0xe3>
  402c08:	48 b8 45 72 72 6f 72 	movabs $0x55203a726f727245,%rax
  402c0f:	3a 20 55 
  402c12:	48 ba 6e 61 62 6c 65 	movabs $0x6f7420656c62616e,%rdx
  402c19:	20 74 6f 
  402c1c:	48 89 45 00          	mov    %rax,0x0(%rbp)
  402c20:	48 89 55 08          	mov    %rdx,0x8(%rbp)
  402c24:	48 b8 20 63 6f 6e 6e 	movabs $0x7463656e6e6f6320,%rax
  402c2b:	65 63 74 
  402c2e:	48 ba 20 74 6f 20 73 	movabs $0x76726573206f7420,%rdx
  402c35:	65 72 76 
  402c38:	48 89 45 10          	mov    %rax,0x10(%rbp)
  402c3c:	48 89 55 18          	mov    %rdx,0x18(%rbp)
  402c40:	66 c7 45 20 65 72    	movw   $0x7265,0x20(%rbp)
  402c46:	c6 45 22 00          	movb   $0x0,0x22(%rbp)
  402c4a:	89 df                	mov    %ebx,%edi
  402c4c:	e8 cf e0 ff ff       	callq  400d20 <close@plt>
  402c51:	b8 ff ff ff ff       	mov    $0xffffffff,%eax
  402c56:	e9 de fe ff ff       	jmpq   402b39 <init_driver+0xe3>
  402c5b:	e8 80 e0 ff ff       	callq  400ce0 <__stack_chk_fail@plt>

0000000000402c60 <driver_post>:
  402c60:	53                   	push   %rbx
  402c61:	4c 89 cb             	mov    %r9,%rbx
  402c64:	45 85 c0             	test   %r8d,%r8d
  402c67:	75 18                	jne    402c81 <driver_post+0x21>
  402c69:	48 85 ff             	test   %rdi,%rdi
  402c6c:	74 05                	je     402c73 <driver_post+0x13>
  402c6e:	80 3f 00             	cmpb   $0x0,(%rdi)
  402c71:	75 35                	jne    402ca8 <driver_post+0x48>
  402c73:	66 c7 03 4f 4b       	movw   $0x4b4f,(%rbx)
  402c78:	c6 43 02 00          	movb   $0x0,0x2(%rbx)
  402c7c:	44 89 c0             	mov    %r8d,%eax
  402c7f:	5b                   	pop    %rbx
  402c80:	c3                   	retq   
  402c81:	48 89 ca             	mov    %rcx,%rdx
  402c84:	be 9a 35 40 00       	mov    $0x40359a,%esi
  402c89:	bf 01 00 00 00       	mov    $0x1,%edi
  402c8e:	b8 00 00 00 00       	mov    $0x0,%eax
  402c93:	e8 48 e1 ff ff       	callq  400de0 <__printf_chk@plt>
  402c98:	66 c7 03 4f 4b       	movw   $0x4b4f,(%rbx)
  402c9d:	c6 43 02 00          	movb   $0x0,0x2(%rbx)
  402ca1:	b8 00 00 00 00       	mov    $0x0,%eax
  402ca6:	eb d7                	jmp    402c7f <driver_post+0x1f>
  402ca8:	48 83 ec 08          	sub    $0x8,%rsp
  402cac:	41 51                	push   %r9
  402cae:	49 89 c9             	mov    %rcx,%r9
  402cb1:	49 89 d0             	mov    %rdx,%r8
  402cb4:	48 89 f9             	mov    %rdi,%rcx
  402cb7:	48 89 f2             	mov    %rsi,%rdx
  402cba:	be 72 3b 00 00       	mov    $0x3b72,%esi
  402cbf:	bf 8c 35 40 00       	mov    $0x40358c,%edi
  402cc4:	e8 f8 f5 ff ff       	callq  4022c1 <submitr>
  402cc9:	48 83 c4 10          	add    $0x10,%rsp
  402ccd:	eb b0                	jmp    402c7f <driver_post+0x1f>

0000000000402ccf <check>:
  402ccf:	89 f8                	mov    %edi,%eax
  402cd1:	c1 e8 1c             	shr    $0x1c,%eax
  402cd4:	85 c0                	test   %eax,%eax
  402cd6:	74 1d                	je     402cf5 <check+0x26>
  402cd8:	b9 00 00 00 00       	mov    $0x0,%ecx
  402cdd:	83 f9 1f             	cmp    $0x1f,%ecx
  402ce0:	7f 0d                	jg     402cef <check+0x20>
  402ce2:	89 f8                	mov    %edi,%eax
  402ce4:	d3 e8                	shr    %cl,%eax
  402ce6:	3c 0a                	cmp    $0xa,%al
  402ce8:	74 11                	je     402cfb <check+0x2c>
  402cea:	83 c1 08             	add    $0x8,%ecx
  402ced:	eb ee                	jmp    402cdd <check+0xe>
  402cef:	b8 01 00 00 00       	mov    $0x1,%eax
  402cf4:	c3                   	retq   
  402cf5:	b8 00 00 00 00       	mov    $0x0,%eax
  402cfa:	c3                   	retq   
  402cfb:	b8 00 00 00 00       	mov    $0x0,%eax
  402d00:	c3                   	retq   

0000000000402d01 <gencookie>:
  402d01:	53                   	push   %rbx
  402d02:	83 c7 01             	add    $0x1,%edi
  402d05:	e8 86 df ff ff       	callq  400c90 <srandom@plt>
  402d0a:	e8 91 e0 ff ff       	callq  400da0 <random@plt>
  402d0f:	89 c3                	mov    %eax,%ebx
  402d11:	89 c7                	mov    %eax,%edi
  402d13:	e8 b7 ff ff ff       	callq  402ccf <check>
  402d18:	85 c0                	test   %eax,%eax
  402d1a:	74 ee                	je     402d0a <gencookie+0x9>
  402d1c:	89 d8                	mov    %ebx,%eax
  402d1e:	5b                   	pop    %rbx
  402d1f:	c3                   	retq   

0000000000402d20 <__libc_csu_init>:
  402d20:	41 57                	push   %r15
  402d22:	41 56                	push   %r14
  402d24:	49 89 d7             	mov    %rdx,%r15
  402d27:	41 55                	push   %r13
  402d29:	41 54                	push   %r12
  402d2b:	4c 8d 25 de 10 20 00 	lea    0x2010de(%rip),%r12        # 603e10 <__frame_dummy_init_array_entry>
  402d32:	55                   	push   %rbp
  402d33:	48 8d 2d de 10 20 00 	lea    0x2010de(%rip),%rbp        # 603e18 <__init_array_end>
  402d3a:	53                   	push   %rbx
  402d3b:	41 89 fd             	mov    %edi,%r13d
  402d3e:	49 89 f6             	mov    %rsi,%r14
  402d41:	4c 29 e5             	sub    %r12,%rbp
  402d44:	48 83 ec 08          	sub    $0x8,%rsp
  402d48:	48 c1 fd 03          	sar    $0x3,%rbp
  402d4c:	e8 f7 de ff ff       	callq  400c48 <_init>
  402d51:	48 85 ed             	test   %rbp,%rbp
  402d54:	74 20                	je     402d76 <__libc_csu_init+0x56>
  402d56:	31 db                	xor    %ebx,%ebx
  402d58:	0f 1f 84 00 00 00 00 	nopl   0x0(%rax,%rax,1)
  402d5f:	00 
  402d60:	4c 89 fa             	mov    %r15,%rdx
  402d63:	4c 89 f6             	mov    %r14,%rsi
  402d66:	44 89 ef             	mov    %r13d,%edi
  402d69:	41 ff 14 dc          	callq  *(%r12,%rbx,8)
  402d6d:	48 83 c3 01          	add    $0x1,%rbx
  402d71:	48 39 dd             	cmp    %rbx,%rbp
  402d74:	75 ea                	jne    402d60 <__libc_csu_init+0x40>
  402d76:	48 83 c4 08          	add    $0x8,%rsp
  402d7a:	5b                   	pop    %rbx
  402d7b:	5d                   	pop    %rbp
  402d7c:	41 5c                	pop    %r12
  402d7e:	41 5d                	pop    %r13
  402d80:	41 5e                	pop    %r14
  402d82:	41 5f                	pop    %r15
  402d84:	c3                   	retq   
  402d85:	90                   	nop
  402d86:	66 2e 0f 1f 84 00 00 	nopw   %cs:0x0(%rax,%rax,1)
  402d8d:	00 00 00 

0000000000402d90 <__libc_csu_fini>:
  402d90:	f3 c3                	repz retq 

Disassembly of section .fini:

0000000000402d94 <_fini>:
  402d94:	48 83 ec 08          	sub    $0x8,%rsp
  402d98:	48 83 c4 08          	add    $0x8,%rsp
  402d9c:	c3                   	retq   
